Component: ARM Compiler 5.06 update 4 (build 422) Tool: armlink [4d35d2]

==============================================================================

Section Cross References

    defaultpkg.o(.text) refers to defaultpkg.o(CODE_RXF_RUNNING_FAST) for WST_EVT::WST_EVT()
    defaultpkg.o(.text) refers to defaultpkg.o(.constdata__ZTV8evToggle) for vtable for evToggle
    defaultpkg.o(.text) refers to defaultpkg.o(.constdata__ZTV4evOn) for vtable for evOn
    defaultpkg.o(.text) refers to defaultpkg.o(.constdata__ZTV5evOff) for vtable for evOff
    defaultpkg.o(.text) refers to defaultpkg.o(.constdata__ZTV14evReceivedData) for vtable for evReceivedData
    defaultpkg.o(.text) refers to defaultpkg.o(.constdata__ZTV21evNewJoystickPosition) for vtable for evNewJoystickPosition
    defaultpkg.o(.text) refers to defaultpkg.o(.constdata__ZTV7evBlink) for vtable for evBlink
    defaultpkg.o(.ARM.exidx) refers to defaultpkg.o(.text) for .text
    display.o(.text) refers to _printf_percent.o(.ARM.Collect$$_printf_percent$$00000000) for _printf_percent
    display.o(.text) refers to _printf_s.o(.ARM.Collect$$_printf_percent$$00000014) for _printf_s
    display.o(.text) refers to _printf_str.o(.text) for _printf_str
    display.o(.text) refers to wst_fsm.o(.text) for WST_FSM::WST_FSM()
    display.o(.text) refers to glcd_mcb1700.o(.text) for GLCD_Initialize
    display.o(.text) refers to strcmpv7m.o(.text) for strcmp
    display.o(.text) refers to noretval__2sprintf.o(.text) for __2sprintf
    display.o(.text) refers to wstmonitor.o(CODE_ANIM_RUNNING_FAST) for WSTMonitor_sendInit(void*, unsigned short, void*)
    display.o(.text) refers to wst_mem.o(.text) for WST_MEM::returnMemory(void*)
    display.o(.text) refers to display.o(.constdata__ZTV7Display) for vtable for Display
    display.o(.text) refers to glcd_fonts.o(.constdata) for GLCD_Font_16x24
    display.o(.ARM.exidx) refers to display.o(.text) for .text
    joystick.o(.text) refers to wst_tsk.o(.text) for WST_TSK::WST_TSK(char*, unsigned char, unsigned short, unsigned short, bool)
    joystick.o(.text) refers to wst_fsm.o(.text) for WST_FSM::WST_FSM()
    joystick.o(.text) refers to wstmonitor.o(CODE_ANIM_RUNNING_FAST) for WSTMonitor_sendInit(void*, unsigned short, void*)
    joystick.o(.text) refers to wst_mem.o(.text) for WST_MEM::returnMemory(void*)
    joystick.o(.text) refers to joystick.o(.constdata__ZTV8Joystick) for vtable for Joystick
    joystick.o(.ARM.exidx) refers to joystick.o(.text) for .text
    led.o(.text) refers to wst_fsm.o(.text) for WST_FSM::WST_FSM()
    led.o(.text) refers to wstmonitor.o(CODE_ANIM_RUNNING_FAST) for WSTMonitor_sendInit(void*, unsigned short, void*)
    led.o(.text) refers to wst_mem.o(.text) for WST_MEM::returnMemory(void*)
    led.o(.text) refers to led.o(.constdata__ZTV3Led) for vtable for Led
    led.o(.ARM.exidx) refers to led.o(.text) for .text
    ledbar.o(.text) refers to led.o(.text) for Led::Led(WST_TSK*)
    ledbar.o(.text) refers to wst_fsm.o(.text) for WST_FSM::setTask(WST_TSK*, bool)
    ledbar.o(.text) refers to aeabi_vec_ctor_nocookie_nodtor.o(i.__aeabi_vec_ctor_nocookie_nodtor) for __aeabi_vec_ctor_nocookie_nodtor
    ledbar.o(.text) refers to wstmonitor.o(CODE_ANIM_RUNNING_FAST) for WSTMonitor_sendInit(void*, unsigned short, void*)
    ledbar.o(.text) refers to aeabi_vec_dtor_noexceptions.o(.text) for __aeabi_vec_dtor
    ledbar.o(.text) refers to wst_mem.o(.text) for WST_MEM::returnMemory(void*)
    ledbar.o(.text) refers to defaultpkg.o(.text) for evToggle::evToggle()
    ledbar.o(.text) refers to ledbar.o(.constdata__ZTV6LedBar) for vtable for LedBar
    ledbar.o(.ARM.exidx) refers to ledbar.o(.text) for .text
    mainmcb1700.o(.text) refers to wst_rxf.o(.text) for WST_RXF::initialize()
    mainmcb1700.o(.text) refers to wst_mem.o(.text) for WST_MEM::getMemory(unsigned)
    mainmcb1700.o(.text) refers to testbuilder.o(.text) for TestBuilder::TestBuilder(WST_TSK*)
    mainmcb1700.o(.ARM.exidx) refers to mainmcb1700.o(.text) for .text
    runningindicatorled.o(.text) refers to wst_tsk.o(.text) for WST_TSK::WST_TSK(char*, unsigned char, unsigned short, unsigned short, bool)
    runningindicatorled.o(.text) refers to wst_fsm.o(.text) for WST_FSM::WST_FSM()
    runningindicatorled.o(.text) refers to wstmonitor.o(CODE_ANIM_RUNNING_FAST) for WSTMonitor_sendInit(void*, unsigned short, void*)
    runningindicatorled.o(.text) refers to wst_mem.o(.text) for WST_MEM::returnMemory(void*)
    runningindicatorled.o(.text) refers to defaultpkg.o(.text) for evOff::evOff()
    runningindicatorled.o(.text) refers to runningindicatorled.o(.constdata__ZTV19RunningIndicatorLed) for vtable for RunningIndicatorLed
    runningindicatorled.o(.ARM.exidx) refers to runningindicatorled.o(.text) for .text
    testbuilder.o(.text) refers to runningindicatorled.o(.text) for RunningIndicatorLed::setItsLed(Led*)
    testbuilder.o(.text) refers to joystick.o(.text) for Joystick::setItsUartController(UartController*)
    testbuilder.o(.text) refers to wst_fsm.o(.text) for WST_FSM::setTask(WST_TSK*, bool)
    testbuilder.o(.text) refers to ledbar.o(.text) for LedBar::setTask(WST_TSK*, bool)
    testbuilder.o(.text) refers to display.o(.text) for Display::Display(WST_TSK*)
    testbuilder.o(.text) refers to led.o(.text) for Led::Led(int, WST_TSK*)
    testbuilder.o(.text) refers to uartcontroller.o(.text) for UartController::UartController()
    testbuilder.o(.text) refers to wstmonitor.o(CODE_ANIM_RUNNING_FAST) for WSTMonitor_sendInit(void*, unsigned short, void*)
    testbuilder.o(.text) refers to wst_mem.o(.text) for WST_MEM::returnMemory(void*)
    testbuilder.o(.text) refers to testbuilder.o(.constdata__ZTV11TestBuilder) for vtable for TestBuilder
    testbuilder.o(.ARM.exidx) refers to testbuilder.o(.text) for .text
    uartcontroller.o(.text) refers to wstmonitor.o(CODE_ANIM_RUNNING_FAST) for WSTMonitor_sendInit(void*, unsigned short, void*)
    uartcontroller.o(.text) refers to delete.o(i._ZdlPv) for operator delete (void*)
    uartcontroller.o(.text) refers to uartcontroller.o(.constdata__ZTV14UartController) for vtable for UartController
    uartcontroller.o(.text) refers to system_lpc17xx.o(.data) for SystemCoreClock
    uartcontroller.o(.ARM.exidx) refers to uartcontroller.o(.text) for .text
    wstmonitor_sendtypes.o(.text) refers to defaultpkg.o(.text) for WSTMonitor_getTypeSize0()
    wstmonitor_sendtypes.o(.text) refers to runningindicatorled.o(.text) for WSTMonitor_getTypeSize1()
    wstmonitor_sendtypes.o(.text) refers to testbuilder.o(.text) for WSTMonitor_getTypeSize2()
    wstmonitor_sendtypes.o(.text) refers to wstmonitor.o(CODE_ANIM_RUNNING_FAST) for WSTMonitor_sendDataStruct(void*, unsigned short)
    wstmonitor_sendtypes.o(.ARM.exidx) refers to wstmonitor_sendtypes.o(.text) for .text
    omstring.o(.text) refers to strcmpv7m.o(.text) for strcmp
    omstring.o(.text) refers to wst_mem.o(.text) for WST_MEM::getMemory(unsigned)
    omstring.o(.text) refers to rt_memcpy_v6.o(.text) for __aeabi_memcpy
    omstring.o(.text) refers to strlen.o(.text) for strlen
    omstring.o(.text) refers to toupper.o(.text) for toupper
    omstring.o(.text) refers to omstring.o(.data) for OMString::defaultBlock
    omstring.o(.ARM.exidx) refers to omstring.o(.text) for .text
    rxf_behaviorpkg.o(.text) refers to wsttarget.o(CODE_RXF_RUNNING_FAST) for WSTTarget_Init
    rxf_behaviorpkg.o(.text) refers to wstrtos.o(CODE_RXF_RUNNING_FAST) for WSTRTOS_Init()
    rxf_behaviorpkg.o(.ARM.exidx) refers to rxf_behaviorpkg.o(.text) for .text
    wst_cfg_highwater.o(.ARM.exidx) refers to wst_cfg_highwater.o(.text) for .text
    wst_err.o(.ARM.exidx) refers to wst_err.o(.text) for .text
    wst_evt.o(.ARM.exidx) refers to wst_evt.o(.text) for .text
    wst_fsm.o(.text) refers to wst_tmm.o(.text) for WST_TMM::cancelEvents(WST_FSM*)
    wst_fsm.o(.text) refers to wst_msq.o(.text) for WST_MSQ::cancelEvents(WST_FSM*, short)
    wst_fsm.o(.text) refers to wst_mem.o(.text) for WST_MEM::returnMemory(void*)
    wst_fsm.o(.text) refers to wstrtos.o(CODE_RXF_RUNNING_FAST) for WSTRTOS_getRxfTicks()
    wst_fsm.o(.text) refers to wstmonitor.o(CODE_ANIM_RUNNING_FAST) for WSTMonitor_sendEventStart(unsigned char*)
    wst_fsm.o(.text) refers to defaultpkg.o(CODE_RXF_RUNNING_FAST) for WST_EVT::WST_EVT()
    wst_fsm.o(.text) refers to wst_err.o(.text) for WST_ERR::error(const WST_ERR::ErrorCode&, const unsigned&)
    wst_fsm.o(.text) refers to wst_fsm.o(.constdata__ZTV7WST_FSM) for vtable for WST_FSM
    wst_fsm.o(.text) refers to wstrtos.o(.bss) for theMainTask
    wst_fsm.o(.text) refers to wst_tmm.o(.bss) for WST_TMM::inst
    wst_fsm.o(.text) refers to wstmonitor.o(DATA_ANIM_RUNNING_UNSPECIFIED_NOINIT_FAST) for monitorTimeoutEnableFlag
    wst_fsm.o(.ARM.exidx) refers to wst_fsm.o(.text) for .text
    wst_mem.o(.text) refers to cxa_guard_acquire.o(i.__cxa_guard_acquire) for __cxa_guard_acquire
    wst_mem.o(.text) refers to wsttarget.o(CODE_RXF_RUNNING_FAST) for WSTTarget_enterCriticalRegion
    wst_mem.o(.text) refers to wst_osw.o(CODE_RXF_RUNNING_FAST) for WST_OSW_MEM_malloc(unsigned)
    wst_mem.o(.text) refers to rt_memcpy_v6.o(.text) for __aeabi_memcpy
    wst_mem.o(.text) refers to wst_mem.o(.data) for myInstance
    wst_mem.o(.text) refers to wst_mem.o(.bss) for smallBuffers
    wst_mem.o(.text) refers to wst_cfg_highwater.o(.data) for WST_CFG_Highwater::smallBuffersMax
    wst_mem.o(.ARM.exidx) refers to wst_mem.o(.text) for .text
    wst_mem_block.o(.ARM.exidx) refers to wst_mem_block.o(.text) for .text
    wst_msq.o(.text) refers to wst_osw.o(CODE_RXF_RUNNING_FAST) for WST_OSW_MSQ_init(WST_MSQ*)
    wst_msq.o(.text) refers to wst_mem.o(.text) for WST_MEM::returnMemory(void*)
    wst_msq.o(.text) refers to wstrtos.o(CODE_RXF_RUNNING_FAST) for WSTRTOS_getRxfTicks()
    wst_msq.o(.text) refers to wstmonitor.o(CODE_ANIM_RUNNING_FAST) for WSTMonitor_sendTimeOut(unsigned char*)
    wst_msq.o(.text) refers to wstmonitor.o(DATA_ANIM_RUNNING_UNSPECIFIED_NOINIT_FAST) for monitorTimeoutEnableFlag
    wst_msq.o(.ARM.exidx) refers to wst_msq.o(.text) for .text
    wst_mtx.o(.text) refers to wst_osw.o(CODE_RXF_RUNNING_FAST) for WST_OSW_MTX_init(WST_MTX*)
    wst_mtx.o(.text) refers to rt_memcpy_w.o(.text) for __aeabi_memcpy4
    wst_mtx.o(.ARM.exidx) refers to wst_mtx.o(.text) for .text
    wst_osw.o(CODE_RXF_RUNNING_FAST) refers to rt_cmsis.o(i.osDelay) for osDelay
    wst_osw.o(CODE_RXF_RUNNING_FAST) refers to rt_cmsis.o(i.osThreadCreate) for osThreadCreate
    wst_osw.o(CODE_RXF_RUNNING_FAST) refers to wst_err.o(.text) for WST_ERR::error(const WST_ERR::ErrorCode&, const unsigned&)
    wst_osw.o(CODE_RXF_RUNNING_FAST) refers to rt_cmsis.o(i.osThreadTerminate) for osThreadTerminate
    wst_osw.o(CODE_RXF_RUNNING_FAST) refers to wstrtos.o(CODE_RXF_RUNNING_FAST) for WSTRTOS_incrementRxfTicks()
    wst_osw.o(CODE_RXF_RUNNING_FAST) refers to wst_tmm.o(.text) for WST_TMM::processTimeouts()
    wst_osw.o(CODE_RXF_RUNNING_FAST) refers to cxa_guard_acquire.o(i.__cxa_guard_acquire) for __cxa_guard_acquire
    wst_osw.o(CODE_RXF_RUNNING_FAST) refers to wst_msq.o(.text) for WST_MSQ::WST_MSQ(unsigned short, bool)
    wst_osw.o(CODE_RXF_RUNNING_FAST) refers to aeabi_atexit.o(.text) for __aeabi_atexit
    wst_osw.o(CODE_RXF_RUNNING_FAST) refers to wst_mem.o(.text) for WST_MEM::getMemory(unsigned)
    wst_osw.o(CODE_RXF_RUNNING_FAST) refers to rt_cmsis.o(i.osMessageCreate) for osMessageCreate
    wst_osw.o(CODE_RXF_RUNNING_FAST) refers to rt_cmsis.o(i.osMessageGet) for osMessageGet
    wst_osw.o(CODE_RXF_RUNNING_FAST) refers to rt_cmsis.o(i.osMessagePut) for osMessagePut
    wst_osw.o(CODE_RXF_RUNNING_FAST) refers to wst_evt.o(.text) for WST_EVT::toBeCancelled(const WST_FSM*, short)
    wst_osw.o(CODE_RXF_RUNNING_FAST) refers to wst_mtx.o(.text) for WST_MTX::WST_MTX_getRtosMutex()
    wst_osw.o(CODE_RXF_RUNNING_FAST) refers to rt_cmsis.o(i.osMutexRelease) for osMutexRelease
    wst_osw.o(CODE_RXF_RUNNING_FAST) refers to rt_cmsis.o(i.osMutexWait) for osMutexWait
    wst_osw.o(CODE_RXF_RUNNING_FAST) refers to array_new.o(i._Znaj) for operator new[] (unsigned)
    wst_osw.o(CODE_RXF_RUNNING_FAST) refers to delete.o(i._ZdlPv) for operator delete (void*)
    wst_osw.o(CODE_RXF_RUNNING_FAST) refers to rt_cmsis.o(i.osTimerCreate) for osTimerCreate
    wst_osw.o(CODE_RXF_RUNNING_FAST) refers to rt_cmsis.o(i.osTimerStart) for osTimerStart
    wst_osw.o(CODE_RXF_RUNNING_FAST) refers to wst_osw.o(.bss) for wstMonitorTask
    wst_osw.o(CODE_RXF_RUNNING_FAST) refers to wst_tsk.o(.text) for WST_TSK::task_start(void*)
    wst_osw.o(CODE_RXF_RUNNING_FAST) refers to wst_tmm.o(.bss) for WST_TMM::inst
    wst_osw.o(CODE_RXF_RUNNING_FAST) refers to wst_osw.o(.data) for _ZGV_ZZ24WST_OSW_MSQ_cancelEventsP7WST_MSQPK7WST_FSMsE7tempMSQ
    wst_osw.o(CODE_RXF_RUNNING_FAST) refers to wst_osw.o(DATA_RXF_RUNNING_UNSPECIFIED_NOINIT_FAST) for mutexInitialized
    wst_osw.o(CODE_RXF_RUNNING_FAST) refers to rt_cmsis.o(i.osMutexCreate) for osMutexCreate
    wst_osw.o(CODE_RXF_RUNNING_FAST) refers to rt_cmsis.o(i.osMutexDelete) for osMutexDelete
    wst_osw.o(.ARM.exidx) refers to wst_osw.o(CODE_RXF_RUNNING_FAST) for CODE_RXF_RUNNING_FAST
    wst_prt_multi.o(.text) refers to delete.o(i._ZdlPv) for operator delete (void*)
    wst_prt_multi.o(.text) refers to wst_mem.o(.text) for WST_MEM::getMemory(unsigned)
    wst_prt_multi.o(.text) refers to wst_fsm.o(.text) for WST_FSM::gen(WST_EVT*, bool)
    wst_prt_multi.o(.text) refers to wst_prt_multi.o(.constdata__ZTV17WST_OutBoundMulti) for vtable for WST_OutBoundMulti
    wst_prt_multi.o(.text) refers to wst_prt_multi.o(.constdata__ZTV16WST_InBoundMulti) for vtable for WST_InBoundMulti
    wst_prt_multi.o(.text) refers to wst_prt_multi.o(.constdata__ZTV13WST_PRT_MULTI) for vtable for WST_PRT_MULTI
    wst_prt_multi.o(.ARM.exidx) refers to wst_prt_multi.o(.text) for .text
    wst_rxf.o(.text) refers to wstmonitor.o(CODE_ANIM_RUNNING_FAST) for WSTMonitor_init()
    wst_rxf.o(.text) refers to wst_tsk.o(.text) for WST_TSK::execute()
    wst_rxf.o(.text) refers to wstrtos.o(.bss) for theMainTask
    wst_rxf.o(.ARM.exidx) refers to wst_rxf.o(.text) for .text
    wst_tmm.o(.text) refers to wst_tmr.o(.text) for WST_TMR::initTimeoutLists()
    wst_tmm.o(.text) refers to wstrtos.o(CODE_RXF_RUNNING_FAST) for WSTRTOS_getRxfTicks()
    wst_tmm.o(.text) refers to wst_mtx.o(.text) for WST_MTX::WST_MTX_enterCriticalRegion()
    wst_tmm.o(.text) refers to wst_msq.o(.text) for WST_MSQ::cancelEvents(WST_FSM*, short)
    wst_tmm.o(.text) refers to rt_memclr_w.o(.text) for __aeabi_memclr4
    wst_tmm.o(.text) refers to wst_mem.o(.text) for WST_MEM::getMemory(unsigned)
    wst_tmm.o(.text) refers to wstrtos.o(.bss) for theMainTask
    wst_tmm.o(.text) refers to defaultpkg.o(.constdata__ZTV7WST_EVT) for vtable for WST_EVT
    wst_tmm.o(.text) refers to wst_tmm.o(.constdata__ZTV7WST_TMR) for vtable for WST_TMR
    wst_tmm.o(.text) refers to wst_cfg_highwater.o(.data) for WST_CFG_Highwater::timeoutsMax
    wst_tmm.o(.text) refers to wst_tmm.o(.bss) for WST_TMM::inst
    wst_tmm.o(.ARM.exidx) refers to wst_tmm.o(.text) for .text
    wst_tmm.o(.init_array) refers to wst_tmm.o(.text) for __sti___11_WST_TMM_cpp_5cffd7cf
    wst_tmm.o(.init_array) refers to init_aeabi.o(.text) for __cpp_initialize__aeabi_
    wst_tmr.o(.text) refers to wsttarget.o(CODE_RXF_RUNNING_FAST) for WSTTarget_enterCriticalRegion
    wst_tmr.o(.text) refers to wst_err.o(.text) for WST_ERR::error(const WST_ERR::ErrorCode&, const unsigned&)
    wst_tmr.o(.text) refers to wst_tmm.o(.text) for WST_TMM::stop(WST_TMR*)
    wst_tmr.o(.text) refers to aeabi_vec_dtor_noexceptions.o(.text) for __aeabi_vec_dtor
    wst_tmr.o(.text) refers to aeabi_vec_ctor_nocookie_nodtor.o(i.__aeabi_vec_ctor_nocookie_nodtor) for __aeabi_vec_ctor_nocookie_nodtor
    wst_tmr.o(.text) refers to aeabi_atexit.o(.text) for __aeabi_atexit
    wst_tmr.o(.text) refers to wst_tmr.o(.data) for itsFreeList
    wst_tmr.o(.text) refers to wst_tmm.o(.bss) for WST_TMM::inst
    wst_tmr.o(.text) refers to wst_tmr.o(.bss) for itsWST_TMR
    wst_tmr.o(.text) refers to wst_tmm.o(i._ZN7WST_TMRD1Ev) for WST_TMR::~WST_TMR()
    wst_tmr.o(.text) refers to wst_tmr.o(i._ZN7WST_TMRC1Ev) for WST_TMR::WST_TMR()
    wst_tmr.o(.ARM.exidx) refers to wst_tmr.o(.text) for .text
    wst_tmr.o(.init_array) refers to wst_tmr.o(.text) for __sti___11_WST_TMR_cpp_d87a1f05
    wst_tmr.o(.init_array) refers to init_aeabi.o(.text) for __cpp_initialize__aeabi_
    wst_tsk.o(.text) refers to wst_msq.o(.text) for WST_MSQ::WST_MSQ(unsigned short, bool)
    wst_tsk.o(.text) refers to wst_mem.o(.text) for WST_MEM::getMemory(unsigned)
    wst_tsk.o(.text) refers to wst_osw.o(CODE_RXF_RUNNING_FAST) for WST_OSW_TSK_init(WST_TSK*)
    wst_tsk.o(.text) refers to rt_memcpy_w.o(.text) for __aeabi_memcpy4
    wst_tsk.o(.text) refers to delete.o(i._ZdlPv) for operator delete (void*)
    wst_tsk.o(.text) refers to wst_err.o(.text) for WST_ERR::error(const WST_ERR::ErrorCode&, const unsigned&)
    wst_tsk.o(.text) refers to wst_fsm.o(.text) for WST_FSM::takeEvent(WST_EVT*)
    wst_tsk.o(.text) refers to wst_tsk.o(.constdata__ZTV7WST_TSK) for vtable for WST_TSK
    wst_tsk.o(.text) refers to wst_tsk.o(.data) for WST_TSK::OS_Started
    wst_tsk.o(.text) refers to wstmonitor.o(DATA_ANIM_RUNNING_UNSPECIFIED_NOINIT_FAST) for monitorStopFlag
    wst_tsk.o(.text) refers to wstrtos.o(.bss) for theMainTask
    wst_tsk.o(.ARM.exidx) refers to wst_tsk.o(.text) for .text
    wstmonitor.o(CODE_ANIM_RUNNING_FAST) refers to wstmonitorio_keil_cortexm3_itm.o(.text) for WSTMonitor_IO_PutByte
    wstmonitor.o(CODE_ANIM_RUNNING_FAST) refers to wst_mem.o(.text) for WST_MEM::getMemory(unsigned)
    wstmonitor.o(CODE_ANIM_RUNNING_FAST) refers to wst_msq.o(.text) for WST_MSQ::put(WST_EVT*, bool)
    wstmonitor.o(CODE_ANIM_RUNNING_FAST) refers to wst_osw.o(CODE_RXF_RUNNING_FAST) for WST_OSW_TSK_userInit(void(*)(void*), osPriority, void*, unsigned short, void*)
    wstmonitor.o(CODE_ANIM_RUNNING_FAST) refers to wst_mtx.o(.text) for WST_MTX::WST_MTX()
    wstmonitor.o(CODE_ANIM_RUNNING_FAST) refers to wstmonitor_sendtypes.o(.text) for WSTMonitor_sendTypeSize()
    wstmonitor.o(CODE_ANIM_RUNNING_FAST) refers to wstmonitor.o(.data) for cmdBuffVersion
    wstmonitor.o(CODE_ANIM_RUNNING_FAST) refers to wst_cfg_highwater.o(.data) for WST_CFG_Highwater::smallBuffersMax
    wstmonitor.o(CODE_ANIM_RUNNING_FAST) refers to wstmonitor.o(DATA_ANIM_RUNNING_UNSPECIFIED_NOINIT_FAST) for monitorStopFlag
    wstmonitor.o(CODE_ANIM_RUNNING_FAST) refers to wstmonitor.o(.bss) for monitorBuffer
    wstmonitor.o(CODE_ANIM_RUNNING_FAST) refers to defaultpkg.o(.constdata__ZTV7WST_EVT) for vtable for WST_EVT
    wstmonitor.o(CODE_ANIM_RUNNING_FAST) refers to wstrtos.o(CODE_RXF_RUNNING_FAST) for WSTRTOS_getRxfTicks()
    wstmonitor.o(.ARM.exidx) refers to wstmonitor.o(CODE_ANIM_RUNNING_FAST) for CODE_ANIM_RUNNING_FAST
    wstmonitorio_keil_cortexm3_itm.o(.text) refers to wstmonitorio_keil_cortexm3_itm.o(.data) for ITM_RxBuffer
    wstmonitorio_keil_cortexm3_itm.o(.text) refers to wstmonitor.o(DATA_ANIM_RUNNING_UNSPECIFIED_NOINIT_FAST) for WSTmonitorBytesAvailable
    wstmonitorio_keil_cortexm3_itm.o(.ARM.exidx) refers to wstmonitorio_keil_cortexm3_itm.o(.text) for .text
    wstrtos.o(.text) refers to wst_tsk.o(.text) for WST_TSK::WST_TSK(char*, unsigned char, unsigned short, unsigned short, bool)
    wstrtos.o(.text) refers to aeabi_atexit.o(.text) for __aeabi_atexit
    wstrtos.o(.text) refers to wstrtos.o(.bss) for theMainTask
    wstrtos.o(CODE_RXF_RUNNING_FAST) refers to rt_cmsis.o(i.osKernelRunning) for osKernelRunning
    wstrtos.o(CODE_RXF_RUNNING_FAST) refers to rt_cmsis.o(i.osKernelInitialize) for osKernelInitialize
    wstrtos.o(CODE_RXF_RUNNING_FAST) refers to wst_err.o(.text) for WST_ERR::error(const WST_ERR::ErrorCode&, const unsigned&)
    wstrtos.o(CODE_RXF_RUNNING_FAST) refers to rt_cmsis.o(i.osThreadGetId) for osThreadGetId
    wstrtos.o(CODE_RXF_RUNNING_FAST) refers to rt_cmsis.o(i.osKernelStart) for osKernelStart
    wstrtos.o(CODE_RXF_RUNNING_FAST) refers to wst_osw.o(CODE_RXF_RUNNING_FAST) for WST_OSW_TMM_initTimerTask()
    wstrtos.o(CODE_RXF_RUNNING_FAST) refers to wst_tsk.o(.text) for WST_TSK::startTaskAfterOSStart()
    wstrtos.o(CODE_RXF_RUNNING_FAST) refers to wst_tmm.o(.text) for WST_TMM::initMutex()
    wstrtos.o(CODE_RXF_RUNNING_FAST) refers to mainmcb1700.o(.text) for WST_RXF_Main(short, char**)
    wstrtos.o(CODE_RXF_RUNNING_FAST) refers to wstrtos.o(.bss) for theMainTask
    wstrtos.o(CODE_RXF_RUNNING_FAST) refers to wst_tsk.o(.data) for WST_TSK::OS_Started
    wstrtos.o(CODE_RXF_RUNNING_FAST) refers to wst_tmm.o(.bss) for WST_TMM::inst
    wstrtos.o(CODE_RXF_RUNNING_FAST) refers to wstrtos.o(DATA_RXF_RUNNING_32_INIT_FAST) for rxfTicks
    wstrtos.o(.ARM.exidx) refers to wstrtos.o(CODE_RXF_RUNNING_FAST) for CODE_RXF_RUNNING_FAST
    wstrtos.o(.ARM.exidx) refers to wstrtos.o(.text) for .text
    wstrtos.o(.init_array) refers to wstrtos.o(.text) for __sti___11_WSTRTOS_cpp_b410bc26
    wstrtos.o(.init_array) refers to init_aeabi.o(.text) for __cpp_initialize__aeabi_
    wsttarget.o(CODE_RXF_RUNNING_FAST) refers to system_lpc17xx.o(.text) for SystemInit
    wsttarget.o(.ARM.exidx) refers to wsttarget.o(CODE_RXF_RUNNING_FAST) for CODE_RXF_RUNNING_FAST
    glcd_mcb1700.o(.text) refers to gpio_lpc17xx.o(.text) for GPIO_SetDir
    glcd_mcb1700.o(.text) refers to pin_lpc17xx.o(.text) for PIN_Configure
    glcd_mcb1700.o(.text) refers to system_lpc17xx.o(.data) for SystemCoreClock
    glcd_mcb1700.o(.text) refers to glcd_mcb1700.o(.data) for spi1_pins
    glcd_mcb1700.o(.text) refers to ssp_lpc17xx.o(.constdata) for Driver_SPI1
    rtx_conf_cm.o(.emb_text) refers to rt_cmsis.o(i.osKernelInitialize) for osKernelInitialize
    rtx_conf_cm.o(.emb_text) refers to rt_cmsis.o(i.osThreadCreate) for osThreadCreate
    rtx_conf_cm.o(.emb_text) refers to rt_cmsis.o(i.osKernelStart) for osKernelStart
    rtx_conf_cm.o(.emb_text) refers to exit.o(.text) for exit
    rtx_conf_cm.o(.emb_text) refers to rtx_conf_cm.o(.constdata) for os_thread_def_main
    rtx_conf_cm.o(.text) refers to rt_task.o(i.rt_tsk_self) for rt_tsk_self
    rtx_conf_cm.o(.text) refers to rt_mutex.o(i.rt_mut_init) for rt_mut_init
    rtx_conf_cm.o(.text) refers to rt_cmsis.o(.data) for os_running
    rtx_conf_cm.o(.text) refers to rtx_conf_cm.o(.bss) for .bss
    rtx_conf_cm.o(.text) refers to libspace.o(.bss) for __libspace_start
    rtx_conf_cm.o(.text) refers to rtx_conf_cm.o(.data) for .data
    rtx_conf_cm.o(.text) refers to rt_mutex.o(i.rt_mut_wait) for rt_mut_wait
    rtx_conf_cm.o(.text) refers to rt_mutex.o(i.rt_mut_release) for rt_mut_release
    rtx_conf_cm.o(.constdata) refers to rt_cmsis.o(i.osTimerThread) for osTimerThread
    rtx_conf_cm.o(.constdata) refers to rtx_conf_cm.o(.bss) for os_messageQ_q_osTimerMessageQ
    rtx_conf_cm.o(.constdata) refers to rxf_behaviorpkg.o(.text) for main
    ssp_lpc17xx.o(.text) refers to rt_memclr_w.o(.text) for __aeabi_memclr4
    ssp_lpc17xx.o(.text) refers to pin_lpc17xx.o(.text) for PIN_Configure
    ssp_lpc17xx.o(.text) refers to gpdma_lpc17xx.o(.text) for GPDMA_Initialize
    ssp_lpc17xx.o(.text) refers to system_lpc17xx.o(.data) for SystemCoreClock
    ssp_lpc17xx.o(.text) refers to ssp_lpc17xx.o(.constdata) for DriverVersion
    ssp_lpc17xx.o(.text) refers to ssp_lpc17xx.o(.data) for dummy_data
    ssp_lpc17xx.o(.text) refers to gpio_lpc17xx.o(.text) for GPIO_PinWrite
    ssp_lpc17xx.o(.constdata) refers to ssp_lpc17xx.o(.data) for SSP1_pin_ssel
    ssp_lpc17xx.o(.constdata) refers to ssp_lpc17xx.o(.text) for SSP1_GPDMA_Tx_SignalEvent
    ssp_lpc17xx.o(.constdata) refers to ssp_lpc17xx.o(.bss) for SSP1_Info
    gpdma_lpc17xx.o(.text) refers to gpdma_lpc17xx.o(.data) for Channel_active
    gpdma_lpc17xx.o(.text) refers to gpdma_lpc17xx.o(.bss) for Channel_info
    startup_lpc17xx.o(STACK) refers (Special) to heapauxi.o(.text) for __use_two_region_memory
    startup_lpc17xx.o(HEAP) refers (Special) to heapauxi.o(.text) for __use_two_region_memory
    startup_lpc17xx.o(RESET) refers (Special) to heapauxi.o(.text) for __use_two_region_memory
    startup_lpc17xx.o(RESET) refers to startup_lpc17xx.o(STACK) for __initial_sp
    startup_lpc17xx.o(RESET) refers to startup_lpc17xx.o(.text) for Reset_Handler
    startup_lpc17xx.o(RESET) refers to hal_cm3.o(.emb_text) for SVC_Handler
    startup_lpc17xx.o(RESET) refers to ssp_lpc17xx.o(.text) for SSP1_IRQHandler
    startup_lpc17xx.o(RESET) refers to gpdma_lpc17xx.o(.text) for DMA_IRQHandler
    startup_lpc17xx.o(.ARM.__at_0x02FC) refers (Special) to heapauxi.o(.text) for __use_two_region_memory
    startup_lpc17xx.o(.text) refers (Special) to heapauxi.o(.text) for __use_two_region_memory
    startup_lpc17xx.o(.text) refers to system_lpc17xx.o(.text) for SystemInit
    startup_lpc17xx.o(.text) refers to __main.o(!!!main) for __main
    startup_lpc17xx.o(.text) refers to startup_lpc17xx.o(HEAP) for Heap_Mem
    startup_lpc17xx.o(.text) refers to startup_lpc17xx.o(STACK) for Stack_Mem
    system_lpc17xx.o(.text) refers to lludivv7m.o(.text) for __aeabi_uldivmod
    system_lpc17xx.o(.text) refers to system_lpc17xx.o(.data) for SystemCoreClock
    rt_cmsis.o(i.isrMessageGet) refers to rt_mailbox.o(i.isr_mbx_receive) for isr_mbx_receive
    rt_cmsis.o(i.isrMessagePut) refers to rt_mailbox.o(i.rt_mbx_check) for rt_mbx_check
    rt_cmsis.o(i.isrMessagePut) refers to rt_mailbox.o(i.isr_mbx_send) for isr_mbx_send
    rt_cmsis.o(i.isrSemaphoreRelease) refers to rt_cmsis.o(i.rt_id2obj) for rt_id2obj
    rt_cmsis.o(i.isrSemaphoreRelease) refers to rt_semaphore.o(i.isr_sem_send) for isr_sem_send
    rt_cmsis.o(i.isrSignalSet) refers to rt_cmsis.o(i.rt_tid2ptcb) for rt_tid2ptcb
    rt_cmsis.o(i.isrSignalSet) refers to rt_event.o(i.isr_evt_set) for isr_evt_set
    rt_cmsis.o(i.osDelay) refers to rt_cmsis.o(i.svcDelay) for svcDelay
    rt_cmsis.o(i.osKernelInitialize) refers to rt_cmsis.o(i.svcKernelInitialize) for svcKernelInitialize
    rt_cmsis.o(i.osKernelRunning) refers to rt_cmsis.o(i.svcKernelRunning) for svcKernelRunning
    rt_cmsis.o(i.osKernelRunning) refers to rt_cmsis.o(.data) for .data
    rt_cmsis.o(i.osKernelStart) refers to rtx_conf_cm.o(.constdata) for os_flags
    rt_cmsis.o(i.osKernelStart) refers to rt_cmsis.o(i.svcKernelStart) for svcKernelStart
    rt_cmsis.o(i.osKernelSysTick) refers to rt_cmsis.o(i.svcKernelSysTick) for svcKernelSysTick
    rt_cmsis.o(i.osMailAlloc) refers to rt_cmsis.o(i.sysMailAlloc) for sysMailAlloc
    rt_cmsis.o(i.osMailCAlloc) refers to rt_cmsis.o(i.sysMailAlloc) for sysMailAlloc
    rt_cmsis.o(i.osMailCAlloc) refers to rt_cmsis.o(i.rt_clr_box) for rt_clr_box
    rt_cmsis.o(i.osMailCreate) refers to rt_cmsis.o(i.svcMailCreate) for svcMailCreate
    rt_cmsis.o(i.osMailCreate) refers to rt_cmsis.o(.data) for .data
    rt_cmsis.o(i.osMailFree) refers to rt_cmsis.o(i.sysMailFree) for sysMailFree
    rt_cmsis.o(i.osMailGet) refers to rt_cmsis.o(i.osMessageGet) for osMessageGet
    rt_cmsis.o(i.osMailPut) refers to rt_cmsis.o(i.osMessagePut) for osMessagePut
    rt_cmsis.o(i.osMessageCreate) refers to rt_cmsis.o(i.svcMessageCreate) for svcMessageCreate
    rt_cmsis.o(i.osMessageCreate) refers to rt_cmsis.o(.data) for .data
    rt_cmsis.o(i.osMessageGet) refers to rt_cmsis.o(i.isrMessageGet) for isrMessageGet
    rt_cmsis.o(i.osMessageGet) refers to rt_cmsis.o(i.svcMessageGet) for svcMessageGet
    rt_cmsis.o(i.osMessagePut) refers to rt_cmsis.o(i.isrMessagePut) for isrMessagePut
    rt_cmsis.o(i.osMessagePut) refers to rt_cmsis.o(i.svcMessagePut) for svcMessagePut
    rt_cmsis.o(i.osMutexCreate) refers to rt_cmsis.o(i.svcMutexCreate) for svcMutexCreate
    rt_cmsis.o(i.osMutexCreate) refers to rt_cmsis.o(.data) for .data
    rt_cmsis.o(i.osMutexDelete) refers to rt_cmsis.o(i.svcMutexDelete) for svcMutexDelete
    rt_cmsis.o(i.osMutexRelease) refers to rt_cmsis.o(i.svcMutexRelease) for svcMutexRelease
    rt_cmsis.o(i.osMutexWait) refers to rt_cmsis.o(i.svcMutexWait) for svcMutexWait
    rt_cmsis.o(i.osPoolAlloc) refers to rt_cmsis.o(i.sysPoolAlloc) for sysPoolAlloc
    rt_cmsis.o(i.osPoolCAlloc) refers to rt_cmsis.o(i.rt_clr_box) for rt_clr_box
    rt_cmsis.o(i.osPoolCAlloc) refers to rt_cmsis.o(i.sysPoolAlloc) for sysPoolAlloc
    rt_cmsis.o(i.osPoolCreate) refers to rt_cmsis.o(i.svcPoolCreate) for svcPoolCreate
    rt_cmsis.o(i.osPoolCreate) refers to rt_cmsis.o(.data) for .data
    rt_cmsis.o(i.osPoolFree) refers to rt_cmsis.o(i.sysPoolFree) for sysPoolFree
    rt_cmsis.o(i.osSemaphoreCreate) refers to rt_cmsis.o(i.svcSemaphoreCreate) for svcSemaphoreCreate
    rt_cmsis.o(i.osSemaphoreCreate) refers to rt_cmsis.o(.data) for .data
    rt_cmsis.o(i.osSemaphoreDelete) refers to rt_cmsis.o(i.svcSemaphoreDelete) for svcSemaphoreDelete
    rt_cmsis.o(i.osSemaphoreRelease) refers to rt_cmsis.o(i.isrSemaphoreRelease) for isrSemaphoreRelease
    rt_cmsis.o(i.osSemaphoreRelease) refers to rt_cmsis.o(i.svcSemaphoreRelease) for svcSemaphoreRelease
    rt_cmsis.o(i.osSemaphoreWait) refers to rt_cmsis.o(i.svcSemaphoreWait) for svcSemaphoreWait
    rt_cmsis.o(i.osSignalClear) refers to rt_cmsis.o(i.svcSignalClear) for svcSignalClear
    rt_cmsis.o(i.osSignalSet) refers to rt_cmsis.o(i.isrSignalSet) for isrSignalSet
    rt_cmsis.o(i.osSignalSet) refers to rt_cmsis.o(i.svcSignalSet) for svcSignalSet
    rt_cmsis.o(i.osSignalWait) refers to rt_cmsis.o(i.svcSignalWait) for svcSignalWait
    rt_cmsis.o(i.osThreadCreate) refers to rt_cmsis.o(i.svcThreadCreate) for svcThreadCreate
    rt_cmsis.o(i.osThreadCreate) refers to rt_cmsis.o(.data) for .data
    rt_cmsis.o(i.osThreadExit) refers to rt_cmsis.o(i.svcThreadGetId) for svcThreadGetId
    rt_cmsis.o(i.osThreadExit) refers to rt_cmsis.o(i.svcThreadTerminate) for svcThreadTerminate
    rt_cmsis.o(i.osThreadGetId) refers to rt_cmsis.o(i.svcThreadGetId) for svcThreadGetId
    rt_cmsis.o(i.osThreadGetPriority) refers to rt_cmsis.o(i.svcThreadGetPriority) for svcThreadGetPriority
    rt_cmsis.o(i.osThreadSetPriority) refers to rt_cmsis.o(i.svcThreadSetPriority) for svcThreadSetPriority
    rt_cmsis.o(i.osThreadTerminate) refers to rt_cmsis.o(i.svcThreadTerminate) for svcThreadTerminate
    rt_cmsis.o(i.osThreadYield) refers to rt_cmsis.o(i.svcThreadYield) for svcThreadYield
    rt_cmsis.o(i.osTimerCall) refers to rt_cmsis.o(i.svcTimerCall) for svcTimerCall
    rt_cmsis.o(i.osTimerCreate) refers to rt_cmsis.o(i.svcTimerCreate) for svcTimerCreate
    rt_cmsis.o(i.osTimerCreate) refers to rt_cmsis.o(.data) for .data
    rt_cmsis.o(i.osTimerDelete) refers to rt_cmsis.o(i.svcTimerDelete) for svcTimerDelete
    rt_cmsis.o(i.osTimerStart) refers to rt_cmsis.o(i.svcTimerStart) for svcTimerStart
    rt_cmsis.o(i.osTimerStop) refers to rt_cmsis.o(i.svcTimerStop) for svcTimerStop
    rt_cmsis.o(i.osTimerThread) refers to rt_cmsis.o(i.osMessageGet) for osMessageGet
    rt_cmsis.o(i.osTimerThread) refers to rt_cmsis.o(i.osTimerCall) for osTimerCall
    rt_cmsis.o(i.osTimerThread) refers to rtx_conf_cm.o(.data) for osMessageQId_osTimerMessageQ
    rt_cmsis.o(i.os_resume) refers to rt_system.o(i.rt_resume) for rt_resume
    rt_cmsis.o(i.os_suspend) refers to rt_system.o(i.rt_suspend) for rt_suspend
    rt_cmsis.o(i.rt_ms2tick) refers to rtx_conf_cm.o(.constdata) for os_clockrate
    rt_cmsis.o(i.rt_timer_insert) refers to rt_cmsis.o(.data) for .data
    rt_cmsis.o(i.rt_timer_remove) refers to rt_cmsis.o(.data) for .data
    rt_cmsis.o(i.svcDelay) refers to rt_cmsis.o(i.rt_ms2tick) for rt_ms2tick
    rt_cmsis.o(i.svcDelay) refers to rt_time.o(i.rt_dly_wait) for rt_dly_wait
    rt_cmsis.o(i.svcKernelInitialize) refers to rt_memory.o(i.rt_init_mem) for rt_init_mem
    rt_cmsis.o(i.svcKernelInitialize) refers to rt_task.o(i.rt_sys_init) for rt_sys_init
    rt_cmsis.o(i.svcKernelInitialize) refers to rt_cmsis.o(i.svcMessageCreate) for svcMessageCreate
    rt_cmsis.o(i.svcKernelInitialize) refers to rt_cmsis.o(i.svcThreadCreate) for svcThreadCreate
    rt_cmsis.o(i.svcKernelInitialize) refers to rt_cmsis.o(.data) for .data
    rt_cmsis.o(i.svcKernelInitialize) refers to rtx_conf_cm.o(.bss) for os_stack_mem
    rt_cmsis.o(i.svcKernelInitialize) refers to rtx_conf_cm.o(.constdata) for os_stack_sz
    rt_cmsis.o(i.svcKernelInitialize) refers to rt_task.o(.data) for os_tsk
    rt_cmsis.o(i.svcKernelInitialize) refers to rtx_conf_cm.o(.data) for osMessageQId_osTimerMessageQ
    rt_cmsis.o(i.svcKernelRunning) refers to rt_cmsis.o(.data) for .data
    rt_cmsis.o(i.svcKernelStart) refers to rt_task.o(i.rt_tsk_prio) for rt_tsk_prio
    rt_cmsis.o(i.svcKernelStart) refers to rt_task.o(i.rt_sys_start) for rt_sys_start
    rt_cmsis.o(i.svcKernelStart) refers to rt_cmsis.o(.data) for .data
    rt_cmsis.o(i.svcKernelStart) refers to rt_task.o(.data) for os_tsk
    rt_cmsis.o(i.svcKernelSysTick) refers to rt_system.o(i.os_tick_val) for os_tick_val
    rt_cmsis.o(i.svcKernelSysTick) refers to rt_system.o(i.os_tick_ovf) for os_tick_ovf
    rt_cmsis.o(i.svcKernelSysTick) refers to rtx_conf_cm.o(.constdata) for os_trv
    rt_cmsis.o(i.svcKernelSysTick) refers to rt_time.o(.data) for os_time
    rt_cmsis.o(i.svcMailCreate) refers to rt_membox.o(i._init_box) for _init_box
    rt_cmsis.o(i.svcMailCreate) refers to rt_mailbox.o(i.rt_mbx_init) for rt_mbx_init
    rt_cmsis.o(i.svcMessageCreate) refers to rt_mailbox.o(i.rt_mbx_init) for rt_mbx_init
    rt_cmsis.o(i.svcMessageGet) refers to rt_cmsis.o(i.rt_ms2tick) for rt_ms2tick
    rt_cmsis.o(i.svcMessageGet) refers to rt_mailbox.o(i.rt_mbx_wait) for rt_mbx_wait
    rt_cmsis.o(i.svcMessagePut) refers to rt_cmsis.o(i.rt_ms2tick) for rt_ms2tick
    rt_cmsis.o(i.svcMessagePut) refers to rt_mailbox.o(i.rt_mbx_send) for rt_mbx_send
    rt_cmsis.o(i.svcMutexCreate) refers to rt_mutex.o(i.rt_mut_init) for rt_mut_init
    rt_cmsis.o(i.svcMutexDelete) refers to rt_cmsis.o(i.rt_id2obj) for rt_id2obj
    rt_cmsis.o(i.svcMutexDelete) refers to rt_mutex.o(i.rt_mut_delete) for rt_mut_delete
    rt_cmsis.o(i.svcMutexRelease) refers to rt_cmsis.o(i.rt_id2obj) for rt_id2obj
    rt_cmsis.o(i.svcMutexRelease) refers to rt_mutex.o(i.rt_mut_release) for rt_mut_release
    rt_cmsis.o(i.svcMutexWait) refers to rt_cmsis.o(i.rt_id2obj) for rt_id2obj
    rt_cmsis.o(i.svcMutexWait) refers to rt_cmsis.o(i.rt_ms2tick) for rt_ms2tick
    rt_cmsis.o(i.svcMutexWait) refers to rt_mutex.o(i.rt_mut_wait) for rt_mut_wait
    rt_cmsis.o(i.svcPoolCreate) refers to rt_membox.o(i._init_box) for _init_box
    rt_cmsis.o(i.svcSemaphoreCreate) refers to rt_semaphore.o(i.rt_sem_init) for rt_sem_init
    rt_cmsis.o(i.svcSemaphoreDelete) refers to rt_cmsis.o(i.rt_id2obj) for rt_id2obj
    rt_cmsis.o(i.svcSemaphoreDelete) refers to rt_semaphore.o(i.rt_sem_delete) for rt_sem_delete
    rt_cmsis.o(i.svcSemaphoreRelease) refers to rt_cmsis.o(i.rt_id2obj) for rt_id2obj
    rt_cmsis.o(i.svcSemaphoreRelease) refers to rt_semaphore.o(i.rt_sem_send) for rt_sem_send
    rt_cmsis.o(i.svcSemaphoreWait) refers to rt_cmsis.o(i.rt_id2obj) for rt_id2obj
    rt_cmsis.o(i.svcSemaphoreWait) refers to rt_cmsis.o(i.rt_ms2tick) for rt_ms2tick
    rt_cmsis.o(i.svcSemaphoreWait) refers to rt_semaphore.o(i.rt_sem_wait) for rt_sem_wait
    rt_cmsis.o(i.svcSignalClear) refers to rt_cmsis.o(i.rt_tid2ptcb) for rt_tid2ptcb
    rt_cmsis.o(i.svcSignalClear) refers to rt_event.o(i.rt_evt_clr) for rt_evt_clr
    rt_cmsis.o(i.svcSignalSet) refers to rt_cmsis.o(i.rt_tid2ptcb) for rt_tid2ptcb
    rt_cmsis.o(i.svcSignalSet) refers to rt_event.o(i.rt_evt_set) for rt_evt_set
    rt_cmsis.o(i.svcSignalWait) refers to rt_cmsis.o(i.rt_ms2tick) for rt_ms2tick
    rt_cmsis.o(i.svcSignalWait) refers to rt_event.o(i.rt_evt_wait) for rt_evt_wait
    rt_cmsis.o(i.svcSignalWait) refers to rt_task.o(.data) for os_tsk
    rt_cmsis.o(i.svcThreadCreate) refers to rt_memory.o(i.rt_alloc_mem) for rt_alloc_mem
    rt_cmsis.o(i.svcThreadCreate) refers to rt_task.o(i.rt_tsk_create) for rt_tsk_create
    rt_cmsis.o(i.svcThreadCreate) refers to rt_memory.o(i.rt_free_mem) for rt_free_mem
    rt_cmsis.o(i.svcThreadCreate) refers to rtx_conf_cm.o(.bss) for os_stack_mem
    rt_cmsis.o(i.svcThreadCreate) refers to rt_cmsis.o(i.osThreadExit) for osThreadExit
    rt_cmsis.o(i.svcThreadGetId) refers to rt_task.o(i.rt_tsk_self) for rt_tsk_self
    rt_cmsis.o(i.svcThreadGetId) refers to rtx_conf_cm.o(.bss) for os_active_TCB
    rt_cmsis.o(i.svcThreadGetPriority) refers to rt_cmsis.o(i.rt_tid2ptcb) for rt_tid2ptcb
    rt_cmsis.o(i.svcThreadSetPriority) refers to rt_cmsis.o(i.rt_tid2ptcb) for rt_tid2ptcb
    rt_cmsis.o(i.svcThreadSetPriority) refers to rt_task.o(i.rt_tsk_prio) for rt_tsk_prio
    rt_cmsis.o(i.svcThreadTerminate) refers to rt_cmsis.o(i.rt_tid2ptcb) for rt_tid2ptcb
    rt_cmsis.o(i.svcThreadTerminate) refers to rt_task.o(i.rt_tsk_delete) for rt_tsk_delete
    rt_cmsis.o(i.svcThreadTerminate) refers to rt_memory.o(i.rt_free_mem) for rt_free_mem
    rt_cmsis.o(i.svcThreadTerminate) refers to rtx_conf_cm.o(.bss) for os_stack_mem
    rt_cmsis.o(i.svcThreadYield) refers to rt_task.o(i.rt_tsk_pass) for rt_tsk_pass
    rt_cmsis.o(i.svcTimerCall) refers to rt_cmsis.o(i.rt_id2obj) for rt_id2obj
    rt_cmsis.o(i.svcTimerCreate) refers to rtx_conf_cm.o(.data) for osThreadId_osTimerThread
    rt_cmsis.o(i.svcTimerDelete) refers to rt_cmsis.o(i.rt_id2obj) for rt_id2obj
    rt_cmsis.o(i.svcTimerDelete) refers to rt_cmsis.o(i.rt_timer_remove) for rt_timer_remove
    rt_cmsis.o(i.svcTimerStart) refers to rt_cmsis.o(i.rt_id2obj) for rt_id2obj
    rt_cmsis.o(i.svcTimerStart) refers to lludivv7m.o(.text) for __aeabi_uldivmod
    rt_cmsis.o(i.svcTimerStart) refers to rt_cmsis.o(i.rt_timer_remove) for rt_timer_remove
    rt_cmsis.o(i.svcTimerStart) refers to rt_cmsis.o(i.rt_timer_insert) for rt_timer_insert
    rt_cmsis.o(i.svcTimerStart) refers to rtx_conf_cm.o(.constdata) for os_clockrate
    rt_cmsis.o(i.svcTimerStop) refers to rt_cmsis.o(i.rt_id2obj) for rt_id2obj
    rt_cmsis.o(i.svcTimerStop) refers to rt_cmsis.o(i.rt_timer_remove) for rt_timer_remove
    rt_cmsis.o(i.sysMailAlloc) refers to rt_membox.o(i.rt_alloc_box) for rt_alloc_box
    rt_cmsis.o(i.sysMailAlloc) refers to rt_list.o(i.rt_put_prio) for rt_put_prio
    rt_cmsis.o(i.sysMailAlloc) refers to rt_cmsis.o(i.rt_ms2tick) for rt_ms2tick
    rt_cmsis.o(i.sysMailAlloc) refers to rt_task.o(i.rt_block) for rt_block
    rt_cmsis.o(i.sysMailAlloc) refers to rt_task.o(.data) for os_tsk
    rt_cmsis.o(i.sysMailFree) refers to rt_membox.o(i.rt_free_box) for rt_free_box
    rt_cmsis.o(i.sysMailFree) refers to rt_list.o(i.rt_psq_enq) for rt_psq_enq
    rt_cmsis.o(i.sysMailFree) refers to rt_system.o(i.rt_psh_req) for rt_psh_req
    rt_cmsis.o(i.sysMailFree) refers to rt_membox.o(i.rt_alloc_box) for rt_alloc_box
    rt_cmsis.o(i.sysMailFree) refers to rt_list.o(i.rt_get_first) for rt_get_first
    rt_cmsis.o(i.sysMailFree) refers to hal_cm.o(i.rt_ret_val) for rt_ret_val
    rt_cmsis.o(i.sysMailFree) refers to rt_list.o(i.rt_rmv_dly) for rt_rmv_dly
    rt_cmsis.o(i.sysMailFree) refers to rt_task.o(i.rt_dispatch) for rt_dispatch
    rt_cmsis.o(i.sysPoolAlloc) refers to rt_membox.o(i.rt_alloc_box) for rt_alloc_box
    rt_cmsis.o(i.sysPoolFree) refers to rt_membox.o(i.rt_free_box) for rt_free_box
    rt_cmsis.o(i.sysTimerTick) refers to rt_cmsis.o(i.isrMessagePut) for isrMessagePut
    rt_cmsis.o(i.sysTimerTick) refers to rtx_conf_cm.o(.text) for os_error
    rt_cmsis.o(i.sysTimerTick) refers to rt_cmsis.o(i.rt_timer_insert) for rt_timer_insert
    rt_cmsis.o(i.sysTimerTick) refers to rt_cmsis.o(.data) for .data
    rt_cmsis.o(i.sysTimerTick) refers to rtx_conf_cm.o(.data) for osMessageQId_osTimerMessageQ
    rt_cmsis.o(i.sysUserTimerUpdate) refers to rt_cmsis.o(i.sysTimerTick) for sysTimerTick
    rt_cmsis.o(i.sysUserTimerUpdate) refers to rt_cmsis.o(.data) for .data
    rt_cmsis.o(i.sysUserTimerWakeupTime) refers to rt_cmsis.o(.data) for .data
    rt_task.o(i.rt_block) refers to rt_list.o(i.rt_put_dly) for rt_put_dly
    rt_task.o(i.rt_block) refers to rt_list.o(i.rt_get_first) for rt_get_first
    rt_task.o(i.rt_block) refers to rt_task.o(i.rt_switch_req) for rt_switch_req
    rt_task.o(i.rt_block) refers to rt_task.o(.data) for .data
    rt_task.o(i.rt_block) refers to rt_list.o(.bss) for os_rdy
    rt_task.o(i.rt_dispatch) refers to rt_list.o(i.rt_put_rdy_first) for rt_put_rdy_first
    rt_task.o(i.rt_dispatch) refers to rt_task.o(i.rt_switch_req) for rt_switch_req
    rt_task.o(i.rt_dispatch) refers to rt_list.o(i.rt_get_first) for rt_get_first
    rt_task.o(i.rt_dispatch) refers to rt_list.o(i.rt_put_prio) for rt_put_prio
    rt_task.o(i.rt_dispatch) refers to rt_task.o(.data) for .data
    rt_task.o(i.rt_dispatch) refers to rt_list.o(.bss) for os_rdy
    rt_task.o(i.rt_init_context) refers to rt_membox.o(i.rt_alloc_box) for rt_alloc_box
    rt_task.o(i.rt_init_context) refers to hal_cm.o(i.rt_init_stack) for rt_init_stack
    rt_task.o(i.rt_init_context) refers to rtx_conf_cm.o(.bss) for mp_stk
    rt_task.o(i.rt_switch_req) refers to hal_cm.o(i.dbg_task_switch) for dbg_task_switch
    rt_task.o(i.rt_switch_req) refers to rt_task.o(.data) for .data
    rt_task.o(i.rt_switch_req) refers to hal_cm.o(.data) for dbg_msg
    rt_task.o(i.rt_sys_init) refers to hal_cm.o(i.dbg_init) for dbg_init
    rt_task.o(i.rt_sys_init) refers to rt_membox.o(i._init_box) for _init_box
    rt_task.o(i.rt_sys_init) refers to rt_task.o(i.rt_init_context) for rt_init_context
    rt_task.o(i.rt_sys_init) refers to rtx_conf_cm.o(.text) for rt_init_robin
    rt_task.o(i.rt_sys_init) refers to rtx_conf_cm.o(.bss) for os_active_TCB
    rt_task.o(i.rt_sys_init) refers to rtx_conf_cm.o(.constdata) for os_maxtaskrun
    rt_task.o(i.rt_sys_init) refers to rtx_conf_cm.o(.data) for m_tmr
    rt_task.o(i.rt_sys_init) refers to rt_task.o(.bss) for .bss
    rt_task.o(i.rt_sys_init) refers to rt_list.o(.bss) for os_rdy
    rt_task.o(i.rt_sys_init) refers to rt_task.o(.data) for .data
    rt_task.o(i.rt_sys_start) refers to rt_system.o(i.os_tick_init) for os_tick_init
    rt_task.o(i.rt_sys_start) refers to rt_system.o(.data) for os_tick_irqn
    rt_task.o(i.rt_tsk_create) refers to rt_membox.o(i.rt_alloc_box) for rt_alloc_box
    rt_task.o(i.rt_tsk_create) refers to rt_task.o(i.rt_init_context) for rt_init_context
    rt_task.o(i.rt_tsk_create) refers to hal_cm.o(i.dbg_task_notify) for dbg_task_notify
    rt_task.o(i.rt_tsk_create) refers to rt_task.o(i.rt_dispatch) for rt_dispatch
    rt_task.o(i.rt_tsk_create) refers to rtx_conf_cm.o(.bss) for mp_tcb
    rt_task.o(i.rt_tsk_create) refers to rtx_conf_cm.o(.constdata) for os_maxtaskrun
    rt_task.o(i.rt_tsk_create) refers to hal_cm.o(.data) for dbg_msg
    rt_task.o(i.rt_tsk_delete) refers to hal_cm3.o(.emb_text) for rt_get_PSP
    rt_task.o(i.rt_tsk_delete) refers to rt_system.o(i.rt_stk_check) for rt_stk_check
    rt_task.o(i.rt_tsk_delete) refers to rt_list.o(i.rt_get_first) for rt_get_first
    rt_task.o(i.rt_tsk_delete) refers to hal_cm.o(i.rt_ret_val) for rt_ret_val
    rt_task.o(i.rt_tsk_delete) refers to rt_list.o(i.rt_rmv_dly) for rt_rmv_dly
    rt_task.o(i.rt_tsk_delete) refers to rt_list.o(i.rt_put_prio) for rt_put_prio
    rt_task.o(i.rt_tsk_delete) refers to rt_membox.o(i.rt_free_box) for rt_free_box
    rt_task.o(i.rt_tsk_delete) refers to hal_cm.o(i.dbg_task_notify) for dbg_task_notify
    rt_task.o(i.rt_tsk_delete) refers to rt_list.o(i.rt_rmv_list) for rt_rmv_list
    rt_task.o(i.rt_tsk_delete) refers to rt_task.o(i.rt_dispatch) for rt_dispatch
    rt_task.o(i.rt_tsk_delete) refers to hal_cm.o(.data) for dbg_msg
    rt_task.o(i.rt_tsk_delete) refers to rtx_conf_cm.o(.bss) for os_active_TCB
    rt_task.o(i.rt_tsk_delete) refers to rt_task.o(.data) for .data
    rt_task.o(i.rt_tsk_delete) refers to rt_list.o(.bss) for os_rdy
    rt_task.o(i.rt_tsk_delete) refers to rtx_conf_cm.o(.constdata) for os_maxtaskrun
    rt_task.o(i.rt_tsk_pass) refers to rt_list.o(i.rt_get_same_rdy_prio) for rt_get_same_rdy_prio
    rt_task.o(i.rt_tsk_pass) refers to rt_list.o(i.rt_put_prio) for rt_put_prio
    rt_task.o(i.rt_tsk_pass) refers to rt_task.o(i.rt_switch_req) for rt_switch_req
    rt_task.o(i.rt_tsk_pass) refers to rt_task.o(.data) for .data
    rt_task.o(i.rt_tsk_pass) refers to rt_list.o(.bss) for os_rdy
    rt_task.o(i.rt_tsk_prio) refers to rt_list.o(i.rt_put_prio) for rt_put_prio
    rt_task.o(i.rt_tsk_prio) refers to rt_list.o(i.rt_resort_prio) for rt_resort_prio
    rt_task.o(i.rt_tsk_prio) refers to rt_list.o(i.rt_get_first) for rt_get_first
    rt_task.o(i.rt_tsk_prio) refers to rt_task.o(i.rt_dispatch) for rt_dispatch
    rt_task.o(i.rt_tsk_prio) refers to rt_task.o(.data) for .data
    rt_task.o(i.rt_tsk_prio) refers to rtx_conf_cm.o(.constdata) for os_maxtaskrun
    rt_task.o(i.rt_tsk_prio) refers to rtx_conf_cm.o(.bss) for os_active_TCB
    rt_task.o(i.rt_tsk_prio) refers to rt_list.o(.bss) for os_rdy
    rt_task.o(i.rt_tsk_self) refers to rt_task.o(.data) for .data
    rt_mutex.o(i.rt_mut_delete) refers to rt_list.o(i.rt_resort_prio) for rt_resort_prio
    rt_mutex.o(i.rt_mut_delete) refers to rt_list.o(i.rt_get_first) for rt_get_first
    rt_mutex.o(i.rt_mut_delete) refers to hal_cm.o(i.rt_ret_val) for rt_ret_val
    rt_mutex.o(i.rt_mut_delete) refers to rt_list.o(i.rt_rmv_dly) for rt_rmv_dly
    rt_mutex.o(i.rt_mut_delete) refers to rt_list.o(i.rt_put_prio) for rt_put_prio
    rt_mutex.o(i.rt_mut_delete) refers to rt_task.o(i.rt_dispatch) for rt_dispatch
    rt_mutex.o(i.rt_mut_delete) refers to rt_task.o(.data) for os_tsk
    rt_mutex.o(i.rt_mut_delete) refers to rt_list.o(.bss) for os_rdy
    rt_mutex.o(i.rt_mut_release) refers to rt_list.o(i.rt_get_first) for rt_get_first
    rt_mutex.o(i.rt_mut_release) refers to hal_cm.o(i.rt_ret_val) for rt_ret_val
    rt_mutex.o(i.rt_mut_release) refers to rt_list.o(i.rt_rmv_dly) for rt_rmv_dly
    rt_mutex.o(i.rt_mut_release) refers to rt_list.o(i.rt_put_prio) for rt_put_prio
    rt_mutex.o(i.rt_mut_release) refers to rt_task.o(i.rt_dispatch) for rt_dispatch
    rt_mutex.o(i.rt_mut_release) refers to rt_task.o(.data) for os_tsk
    rt_mutex.o(i.rt_mut_release) refers to rt_list.o(.bss) for os_rdy
    rt_mutex.o(i.rt_mut_wait) refers to rt_list.o(i.rt_resort_prio) for rt_resort_prio
    rt_mutex.o(i.rt_mut_wait) refers to rt_list.o(i.rt_put_prio) for rt_put_prio
    rt_mutex.o(i.rt_mut_wait) refers to rt_task.o(i.rt_block) for rt_block
    rt_mutex.o(i.rt_mut_wait) refers to rt_task.o(.data) for os_tsk
    rt_system.o(i.os_tick_init) refers to rtx_conf_cm.o(.constdata) for os_trv
    rt_system.o(i.os_tick_val) refers to rtx_conf_cm.o(.constdata) for os_trv
    rt_system.o(i.rt_pop_req) refers to rt_list.o(i.rt_put_rdy_first) for rt_put_rdy_first
    rt_system.o(i.rt_pop_req) refers to rt_semaphore.o(i.rt_sem_psh) for rt_sem_psh
    rt_system.o(i.rt_pop_req) refers to rt_list.o(i.rt_get_first) for rt_get_first
    rt_system.o(i.rt_pop_req) refers to rt_task.o(i.rt_switch_req) for rt_switch_req
    rt_system.o(i.rt_pop_req) refers to rt_event.o(i.rt_evt_psh) for rt_evt_psh
    rt_system.o(i.rt_pop_req) refers to rt_mailbox.o(i.rt_mbx_psh) for rt_mbx_psh
    rt_system.o(i.rt_pop_req) refers to rt_task.o(.data) for os_tsk
    rt_system.o(i.rt_pop_req) refers to rtx_conf_cm.o(.bss) for os_fifo
    rt_system.o(i.rt_pop_req) refers to rt_list.o(.bss) for os_rdy
    rt_system.o(i.rt_psh_req) refers to rt_system.o(.data) for .data
    rt_system.o(i.rt_resume) refers to rt_list.o(i.rt_put_rdy_first) for rt_put_rdy_first
    rt_system.o(i.rt_resume) refers to rt_list.o(i.rt_dec_dly) for rt_dec_dly
    rt_system.o(i.rt_resume) refers to rt_cmsis.o(i.sysUserTimerUpdate) for sysUserTimerUpdate
    rt_system.o(i.rt_resume) refers to rt_list.o(i.rt_get_first) for rt_get_first
    rt_system.o(i.rt_resume) refers to rt_task.o(i.rt_switch_req) for rt_switch_req
    rt_system.o(i.rt_resume) refers to rt_system.o(i.rt_tsk_unlock) for rt_tsk_unlock
    rt_system.o(i.rt_resume) refers to rt_task.o(.data) for os_tsk
    rt_system.o(i.rt_resume) refers to rt_robin.o(.data) for os_robin
    rt_system.o(i.rt_resume) refers to rt_list.o(.bss) for os_dly
    rt_system.o(i.rt_resume) refers to rt_time.o(.data) for os_time
    rt_system.o(i.rt_stk_check) refers to rtx_conf_cm.o(.text) for os_error
    rt_system.o(i.rt_stk_check) refers to rt_task.o(.data) for os_tsk
    rt_system.o(i.rt_suspend) refers to rt_system.o(i.rt_tsk_lock) for rt_tsk_lock
    rt_system.o(i.rt_suspend) refers to rt_cmsis.o(i.sysUserTimerWakeupTime) for sysUserTimerWakeupTime
    rt_system.o(i.rt_suspend) refers to rt_list.o(.bss) for os_dly
    rt_system.o(i.rt_systick) refers to rt_list.o(i.rt_put_rdy_first) for rt_put_rdy_first
    rt_system.o(i.rt_systick) refers to rtx_conf_cm.o(.text) for rt_chk_robin
    rt_system.o(i.rt_systick) refers to rt_list.o(i.rt_dec_dly) for rt_dec_dly
    rt_system.o(i.rt_systick) refers to rt_cmsis.o(i.sysTimerTick) for sysTimerTick
    rt_system.o(i.rt_systick) refers to rt_list.o(i.rt_get_first) for rt_get_first
    rt_system.o(i.rt_systick) refers to rt_task.o(i.rt_switch_req) for rt_switch_req
    rt_system.o(i.rt_systick) refers to rt_task.o(.data) for os_tsk
    rt_system.o(i.rt_systick) refers to rt_time.o(.data) for os_time
    rt_system.o(i.rt_systick) refers to rt_list.o(.bss) for os_rdy
    rt_system.o(i.rt_tsk_lock) refers to rt_system.o(.data) for .data
    rt_system.o(i.rt_tsk_unlock) refers to rt_system.o(.data) for .data
    rt_event.o(i.isr_evt_set) refers to rt_list.o(i.rt_psq_enq) for rt_psq_enq
    rt_event.o(i.isr_evt_set) refers to rt_system.o(i.rt_psh_req) for rt_psh_req
    rt_event.o(i.isr_evt_set) refers to rtx_conf_cm.o(.bss) for os_active_TCB
    rt_event.o(i.rt_evt_clr) refers to rtx_conf_cm.o(.bss) for os_active_TCB
    rt_event.o(i.rt_evt_get) refers to rt_task.o(.data) for os_tsk
    rt_event.o(i.rt_evt_psh) refers to rt_list.o(i.rt_rmv_dly) for rt_rmv_dly
    rt_event.o(i.rt_evt_psh) refers to hal_cm.o(i.rt_ret_val2) for rt_ret_val2
    rt_event.o(i.rt_evt_psh) refers to rt_list.o(i.rt_put_prio) for rt_put_prio
    rt_event.o(i.rt_evt_psh) refers to rt_list.o(.bss) for os_rdy
    rt_event.o(i.rt_evt_set) refers to rt_list.o(i.rt_rmv_dly) for rt_rmv_dly
    rt_event.o(i.rt_evt_set) refers to hal_cm.o(i.rt_ret_val2) for rt_ret_val2
    rt_event.o(i.rt_evt_set) refers to rt_task.o(i.rt_dispatch) for rt_dispatch
    rt_event.o(i.rt_evt_set) refers to rtx_conf_cm.o(.bss) for os_active_TCB
    rt_event.o(i.rt_evt_wait) refers to rt_task.o(i.rt_block) for rt_block
    rt_event.o(i.rt_evt_wait) refers to rt_task.o(.data) for os_tsk
    rt_list.o(i.rt_dec_dly) refers to rt_list.o(i.rt_put_prio) for rt_put_prio
    rt_list.o(i.rt_dec_dly) refers to rt_list.o(.bss) for .bss
    rt_list.o(i.rt_dec_dly) refers to rt_time.o(.data) for os_time
    rt_list.o(i.rt_get_same_rdy_prio) refers to rt_list.o(.bss) for .bss
    rt_list.o(i.rt_get_same_rdy_prio) refers to rt_task.o(.data) for os_tsk
    rt_list.o(i.rt_psq_enq) refers to rtx_conf_cm.o(.text) for os_error
    rt_list.o(i.rt_psq_enq) refers to rtx_conf_cm.o(.bss) for os_fifo
    rt_list.o(i.rt_put_dly) refers to rt_list.o(.bss) for .bss
    rt_list.o(i.rt_put_rdy_first) refers to rt_list.o(.bss) for .bss
    rt_list.o(i.rt_resort_prio) refers to rt_list.o(i.rt_rmv_list) for rt_rmv_list
    rt_list.o(i.rt_resort_prio) refers to rt_list.o(i.rt_put_prio) for rt_put_prio
    rt_list.o(i.rt_resort_prio) refers to rt_list.o(.bss) for .bss
    rt_list.o(i.rt_rmv_list) refers to rt_list.o(.bss) for .bss
    rt_mailbox.o(i.isr_mbx_receive) refers to rt_list.o(i.rt_psq_enq) for rt_psq_enq
    rt_mailbox.o(i.isr_mbx_receive) refers to rt_system.o(i.rt_psh_req) for rt_psh_req
    rt_mailbox.o(i.isr_mbx_send) refers to rt_list.o(i.rt_psq_enq) for rt_psq_enq
    rt_mailbox.o(i.isr_mbx_send) refers to rt_system.o(i.rt_psh_req) for rt_psh_req
    rt_mailbox.o(i.rt_mbx_psh) refers to rt_membox.o(i.rt_alloc_box) for rt_alloc_box
    rt_mailbox.o(i.rt_mbx_psh) refers to rt_list.o(i.rt_get_first) for rt_get_first
    rt_mailbox.o(i.rt_mbx_psh) refers to hal_cm.o(i.rt_ret_val) for rt_ret_val
    rt_mailbox.o(i.rt_mbx_psh) refers to rt_list.o(i.rt_rmv_dly) for rt_rmv_dly
    rt_mailbox.o(i.rt_mbx_psh) refers to rt_list.o(i.rt_put_prio) for rt_put_prio
    rt_mailbox.o(i.rt_mbx_psh) refers to hal_cm.o(i.rt_ret_val2) for rt_ret_val2
    rt_mailbox.o(i.rt_mbx_psh) refers to rtx_conf_cm.o(.text) for os_error
    rt_mailbox.o(i.rt_mbx_psh) refers to rt_list.o(.bss) for os_rdy
    rt_mailbox.o(i.rt_mbx_send) refers to rt_list.o(i.rt_put_prio) for rt_put_prio
    rt_mailbox.o(i.rt_mbx_send) refers to rt_list.o(i.rt_get_first) for rt_get_first
    rt_mailbox.o(i.rt_mbx_send) refers to hal_cm.o(i.rt_ret_val2) for rt_ret_val2
    rt_mailbox.o(i.rt_mbx_send) refers to rt_list.o(i.rt_rmv_dly) for rt_rmv_dly
    rt_mailbox.o(i.rt_mbx_send) refers to rt_task.o(i.rt_dispatch) for rt_dispatch
    rt_mailbox.o(i.rt_mbx_send) refers to rt_task.o(i.rt_block) for rt_block
    rt_mailbox.o(i.rt_mbx_send) refers to rt_task.o(.data) for os_tsk
    rt_mailbox.o(i.rt_mbx_wait) refers to rt_list.o(i.rt_get_first) for rt_get_first
    rt_mailbox.o(i.rt_mbx_wait) refers to hal_cm.o(i.rt_ret_val) for rt_ret_val
    rt_mailbox.o(i.rt_mbx_wait) refers to rt_list.o(i.rt_rmv_dly) for rt_rmv_dly
    rt_mailbox.o(i.rt_mbx_wait) refers to rt_task.o(i.rt_dispatch) for rt_dispatch
    rt_mailbox.o(i.rt_mbx_wait) refers to rt_list.o(i.rt_put_prio) for rt_put_prio
    rt_mailbox.o(i.rt_mbx_wait) refers to rt_task.o(i.rt_block) for rt_block
    rt_mailbox.o(i.rt_mbx_wait) refers to rt_task.o(.data) for os_tsk
    rt_semaphore.o(i.isr_sem_send) refers to rt_list.o(i.rt_psq_enq) for rt_psq_enq
    rt_semaphore.o(i.isr_sem_send) refers to rt_system.o(i.rt_psh_req) for rt_psh_req
    rt_semaphore.o(i.rt_sem_delete) refers to rt_list.o(i.rt_get_first) for rt_get_first
    rt_semaphore.o(i.rt_sem_delete) refers to hal_cm.o(i.rt_ret_val) for rt_ret_val
    rt_semaphore.o(i.rt_sem_delete) refers to rt_list.o(i.rt_rmv_dly) for rt_rmv_dly
    rt_semaphore.o(i.rt_sem_delete) refers to rt_list.o(i.rt_put_prio) for rt_put_prio
    rt_semaphore.o(i.rt_sem_delete) refers to rt_task.o(i.rt_dispatch) for rt_dispatch
    rt_semaphore.o(i.rt_sem_delete) refers to rt_list.o(.bss) for os_rdy
    rt_semaphore.o(i.rt_sem_delete) refers to rt_task.o(.data) for os_tsk
    rt_semaphore.o(i.rt_sem_psh) refers to rt_list.o(i.rt_get_first) for rt_get_first
    rt_semaphore.o(i.rt_sem_psh) refers to rt_list.o(i.rt_rmv_dly) for rt_rmv_dly
    rt_semaphore.o(i.rt_sem_psh) refers to hal_cm.o(i.rt_ret_val) for rt_ret_val
    rt_semaphore.o(i.rt_sem_psh) refers to rt_list.o(i.rt_put_prio) for rt_put_prio
    rt_semaphore.o(i.rt_sem_psh) refers to rt_list.o(.bss) for os_rdy
    rt_semaphore.o(i.rt_sem_send) refers to rt_list.o(i.rt_get_first) for rt_get_first
    rt_semaphore.o(i.rt_sem_send) refers to hal_cm.o(i.rt_ret_val) for rt_ret_val
    rt_semaphore.o(i.rt_sem_send) refers to rt_list.o(i.rt_rmv_dly) for rt_rmv_dly
    rt_semaphore.o(i.rt_sem_send) refers to rt_task.o(i.rt_dispatch) for rt_dispatch
    rt_semaphore.o(i.rt_sem_wait) refers to rt_list.o(i.rt_put_prio) for rt_put_prio
    rt_semaphore.o(i.rt_sem_wait) refers to rt_task.o(i.rt_block) for rt_block
    rt_semaphore.o(i.rt_sem_wait) refers to rt_task.o(.data) for os_tsk
    rt_time.o(i.rt_dly_wait) refers to rt_task.o(i.rt_block) for rt_block
    rt_time.o(i.rt_itv_set) refers to rt_task.o(.data) for os_tsk
    rt_time.o(i.rt_itv_set) refers to rt_time.o(.data) for .data
    rt_time.o(i.rt_itv_wait) refers to rt_task.o(i.rt_block) for rt_block
    rt_time.o(i.rt_itv_wait) refers to rt_task.o(.data) for os_tsk
    rt_time.o(i.rt_itv_wait) refers to rt_time.o(.data) for .data
    rt_time.o(i.rt_time_get) refers to rt_time.o(.data) for .data
    rt_membox.o(i._calloc_box) refers to hal_cm3.o(.emb_text) for _alloc_box
    hal_cm.o(i.dbg_init) refers to hal_cm.o(.data) for .data
    hal_cm.o(i.rt_init_stack) refers to rtx_conf_cm.o(.constdata) for os_stackinfo
    hal_cm3.o(.emb_text) refers to rtx_conf_cm.o(.constdata) for os_flags
    hal_cm3.o(.emb_text) refers to rt_membox.o(i.rt_alloc_box) for rt_alloc_box
    hal_cm3.o(.emb_text) refers to rt_membox.o(i.rt_free_box) for rt_free_box
    hal_cm3.o(.emb_text) refers to rt_system.o(i.rt_stk_check) for rt_stk_check
    hal_cm3.o(.emb_text) refers to rt_task.o(.data) for os_tsk
    hal_cm3.o(.emb_text) refers to svc_table.o(SVC_TABLE) for SVC_Count
    hal_cm3.o(.emb_text) refers to rt_system.o(i.rt_pop_req) for rt_pop_req
    hal_cm3.o(.emb_text) refers to rt_system.o(i.rt_systick) for rt_systick
    hal_cm3.o(.emb_text) refers to rt_system.o(i.os_tick_irqack) for os_tick_irqack
    rt_robin.o(i.rt_chk_robin) refers to rt_list.o(i.rt_get_first) for rt_get_first
    rt_robin.o(i.rt_chk_robin) refers to rt_list.o(i.rt_put_prio) for rt_put_prio
    rt_robin.o(i.rt_chk_robin) refers to rt_robin.o(.data) for .data
    rt_robin.o(i.rt_chk_robin) refers to rt_list.o(.bss) for os_rdy
    rt_robin.o(i.rt_chk_robin) refers to rt_time.o(.data) for os_time
    rt_robin.o(i.rt_init_robin) refers to rt_robin.o(.data) for .data
    rt_robin.o(i.rt_init_robin) refers to rtx_conf_cm.o(.constdata) for os_rrobin
    libspace.o(.text) refers to libspace.o(.bss) for __libspace_start
    toupper.o(.text) refers to rt_ctype_table.o(.text) for __rt_ctype_table
    __2sprintf.o(.text) refers to _printf_char_common.o(.text) for _printf_char_common
    __2sprintf.o(.text) refers to _sputc.o(.text) for _sputc
    noretval__2sprintf.o(.text) refers to _printf_char_common.o(.text) for _printf_char_common
    noretval__2sprintf.o(.text) refers to _sputc.o(.text) for _sputc
    __printf.o(.text) refers to _printf_percent.o(.ARM.Collect$$_printf_percent$$00000000) for _printf_percent
    _printf_str.o(.text) refers (Special) to _printf_char.o(.text) for _printf_cs_common
    __printf_flags.o(.text) refers to _printf_percent.o(.ARM.Collect$$_printf_percent$$00000000) for _printf_percent
    __printf_flags.o(.text) refers to __printf_flags.o(.constdata) for .constdata
    __printf_ss.o(.text) refers to _printf_percent.o(.ARM.Collect$$_printf_percent$$00000000) for _printf_percent
    __printf_flags_ss.o(.text) refers to _printf_percent.o(.ARM.Collect$$_printf_percent$$00000000) for _printf_percent
    __printf_flags_ss.o(.text) refers to __printf_flags_ss.o(.constdata) for .constdata
    __printf_wp.o(.text) refers to __printf_wp.o(i._is_digit) for _is_digit
    __printf_wp.o(.text) refers to _printf_percent.o(.ARM.Collect$$_printf_percent$$00000000) for _printf_percent
    __printf_flags_wp.o(.text) refers to __printf_wp.o(i._is_digit) for _is_digit
    __printf_flags_wp.o(.text) refers to _printf_percent.o(.ARM.Collect$$_printf_percent$$00000000) for _printf_percent
    __printf_flags_wp.o(.text) refers to __printf_flags_wp.o(.constdata) for .constdata
    __printf_ss_wp.o(.text) refers to __printf_wp.o(i._is_digit) for _is_digit
    __printf_ss_wp.o(.text) refers to _printf_percent.o(.ARM.Collect$$_printf_percent$$00000000) for _printf_percent
    __printf_flags_ss_wp.o(.text) refers to __printf_wp.o(i._is_digit) for _is_digit
    __printf_flags_ss_wp.o(.text) refers to _printf_percent.o(.ARM.Collect$$_printf_percent$$00000000) for _printf_percent
    __printf_flags_ss_wp.o(.text) refers to __printf_flags_ss_wp.o(.constdata) for .constdata
    _printf_s.o(.ARM.Collect$$_printf_percent$$00000014) refers (Weak) to _printf_char.o(.text) for _printf_string
    _printf_percent.o(.ARM.Collect$$_printf_percent$$00000000) refers (Special) to _printf_percent_end.o(.ARM.Collect$$_printf_percent$$00000017) for _printf_percent_end
    exit.o(.text) refers to rtexit.o(.ARM.Collect$$rtexit$$00000000) for __rt_exit
    atexit_aeabi.o(.text) refers to aeabi_atexit.o(.text) for __aeabi_atexit
    atexit_aeabi.o(.ARM.exidx) refers to atexit_aeabi.o(.text) for .text
    aeabi_atexit.o(.text) refers (Special) to cxa_finalize.o(.text) for __cxa_finalize
    aeabi_atexit.o(.text) refers to h1_alloc_mt.o(.text) for malloc
    aeabi_atexit.o(.text) refers to rt_ddtor_pointer_addr_twolibspace.o(.text) for __rt_ddtor_pointer_addr
    aeabi_atexit.o(.ARM.exidx) refers (Special) to cxa_finalize.o(.text) for __cxa_finalize
    aeabi_atexit.o(.ARM.exidx) refers to aeabi_atexit.o(.text) for .text
    rt_memcpy_v6.o(.text) refers to rt_memcpy_w.o(.text) for __aeabi_memcpy4
    __main.o(!!!main) refers to __rtentry.o(.ARM.Collect$$rtentry$$00000000) for __rt_entry
    init_aeabi.o(.emb_text) refers (Special) to libinit2.o(.ARM.Collect$$libinit$$00000031) for __rt_lib_init_cpp_2
    init_aeabi.o(.init_array) refers (Special) to libinit2.o(.ARM.Collect$$libinit$$00000031) for __rt_lib_init_cpp_2
    init_aeabi.o(.init_array) refers to init_aeabi.o(.text) for __cpp_initialize__aeabi_
    init_aeabi.o(.dummy_text) refers (Special) to libinit2.o(.ARM.Collect$$libinit$$00000031) for __rt_lib_init_cpp_2
    init_aeabi.o(.text) refers (Special) to libinit2.o(.ARM.Collect$$libinit$$00000031) for __rt_lib_init_cpp_2
    init_aeabi.o(.ARM.exidx) refers (Special) to libinit2.o(.ARM.Collect$$libinit$$00000031) for __rt_lib_init_cpp_2
    init_aeabi.o(.ARM.exidx) refers to init_aeabi.o(.text) for .text
    array_new.o(i._Znaj) refers to new.o(i._Znwj) for operator new(unsigned)
    array_new.o(.ARM.exidx) refers to array_new.o(i._Znaj) for i._Znaj
    array_new.o(.ARM.exidx) refers to unwind_pr0.o(.text) for __aeabi_unwind_cpp_pr0
    array_new.o(.ARM.exidx) refers to array_new.o(.ARM.extab) for .extab._Znaj
    array_new.o(.ARM.extab) refers to arm_callunex_noexceptions.o(.text) for __cxa_call_unexpected
    array_new.o(.ARM.extab) refers to bad_alloc_dtor.o(.constdata__ZTISt9bad_alloc) for typeinfo for std::bad_alloc
    delete.o(i._ZdlPv) refers to h1_free_mt.o(.text) for free
    delete.o(.ARM.exidx) refers to delete.o(i._ZdlPv) for i._ZdlPv
    cxa_guard_acquire.o(.ARM.exidx) refers to cxa_guard_acquire.o(i.__cxa_guard_acquire) for i.__cxa_guard_acquire
    cxa_guard_release.o(.ARM.exidx) refers to cxa_guard_release.o(i.__cxa_guard_release) for i.__cxa_guard_release
    lib_rtti_impl.o(i._ZN10__cxxabiv116__enum_type_infoD0Ev) refers to lib_rtti_impl.o(i._ZN10__cxxabiv116__enum_type_infoD1Ev) for __cxxabiv1::__enum_type_info::~__enum_type_info()
    lib_rtti_impl.o(i._ZN10__cxxabiv117__array_type_infoD0Ev) refers to lib_rtti_impl.o(i._ZN10__cxxabiv117__array_type_infoD1Ev) for __cxxabiv1::__array_type_info::~__array_type_info()
    lib_rtti_impl.o(i._ZN10__cxxabiv117__class_type_infoD0Ev) refers to lib_rtti_impl.o(i._ZN10__cxxabiv117__class_type_infoD1Ev) for __cxxabiv1::__class_type_info::~__class_type_info()
    lib_rtti_impl.o(i._ZN10__cxxabiv117__pbase_type_infoD0Ev) refers to lib_rtti_impl.o(i._ZN10__cxxabiv117__pbase_type_infoD1Ev) for __cxxabiv1::__pbase_type_info::~__pbase_type_info()
    lib_rtti_impl.o(i._ZN10__cxxabiv119__pointer_type_infoD0Ev) refers to lib_rtti_impl.o(i._ZN10__cxxabiv119__pointer_type_infoD1Ev) for __cxxabiv1::__pointer_type_info::~__pointer_type_info()
    lib_rtti_impl.o(i._ZN10__cxxabiv119__pointer_type_infoD1Ev) refers to lib_rtti_impl.o(i._ZN10__cxxabiv117__pbase_type_infoD1Ev) for __cxxabiv1::__pbase_type_info::~__pbase_type_info()
    lib_rtti_impl.o(i._ZN10__cxxabiv120__function_type_infoD0Ev) refers to lib_rtti_impl.o(i._ZN10__cxxabiv120__function_type_infoD1Ev) for __cxxabiv1::__function_type_info::~__function_type_info()
    lib_rtti_impl.o(i._ZN10__cxxabiv120__si_class_type_infoD0Ev) refers to lib_rtti_impl.o(i._ZN10__cxxabiv120__si_class_type_infoD1Ev) for __cxxabiv1::__si_class_type_info::~__si_class_type_info()
    lib_rtti_impl.o(i._ZN10__cxxabiv120__si_class_type_infoD1Ev) refers to lib_rtti_impl.o(i._ZN10__cxxabiv117__class_type_infoD1Ev) for __cxxabiv1::__class_type_info::~__class_type_info()
    lib_rtti_impl.o(i._ZN10__cxxabiv121__vmi_class_type_infoD0Ev) refers to lib_rtti_impl.o(i._ZN10__cxxabiv121__vmi_class_type_infoD1Ev) for __cxxabiv1::__vmi_class_type_info::~__vmi_class_type_info()
    lib_rtti_impl.o(i._ZN10__cxxabiv121__vmi_class_type_infoD1Ev) refers to lib_rtti_impl.o(i._ZN10__cxxabiv117__class_type_infoD1Ev) for __cxxabiv1::__class_type_info::~__class_type_info()
    lib_rtti_impl.o(i._ZN10__cxxabiv123__fundamental_type_infoD0Ev) refers to lib_rtti_impl.o(i._ZN10__cxxabiv123__fundamental_type_infoD1Ev) for __cxxabiv1::__fundamental_type_info::~__fundamental_type_info()
    lib_rtti_impl.o(i._ZN10__cxxabiv129__pointer_to_member_type_infoD0Ev) refers to lib_rtti_impl.o(i._ZN10__cxxabiv129__pointer_to_member_type_infoD1Ev) for __cxxabiv1::__pointer_to_member_type_info::~__pointer_to_member_type_info()
    lib_rtti_impl.o(i._ZN10__cxxabiv129__pointer_to_member_type_infoD1Ev) refers to lib_rtti_impl.o(i._ZN10__cxxabiv117__pbase_type_infoD1Ev) for __cxxabiv1::__pbase_type_info::~__pbase_type_info()
    lib_rtti_impl.o(.ARM.exidx) refers to lib_rtti_impl.o(i._ZN10__cxxabiv123__fundamental_type_infoD1Ev) for i._ZN10__cxxabiv123__fundamental_type_infoD1Ev
    lib_rtti_impl.o(.ARM.exidx) refers to lib_rtti_impl.o(i._ZN10__cxxabiv123__fundamental_type_infoD0Ev) for i._ZN10__cxxabiv123__fundamental_type_infoD0Ev
    lib_rtti_impl.o(.ARM.exidx) refers to lib_rtti_impl.o(i._ZN10__cxxabiv117__array_type_infoD1Ev) for i._ZN10__cxxabiv117__array_type_infoD1Ev
    lib_rtti_impl.o(.ARM.exidx) refers to lib_rtti_impl.o(i._ZN10__cxxabiv117__array_type_infoD0Ev) for i._ZN10__cxxabiv117__array_type_infoD0Ev
    lib_rtti_impl.o(.ARM.exidx) refers to lib_rtti_impl.o(i._ZN10__cxxabiv120__function_type_infoD1Ev) for i._ZN10__cxxabiv120__function_type_infoD1Ev
    lib_rtti_impl.o(.ARM.exidx) refers to lib_rtti_impl.o(i._ZN10__cxxabiv120__function_type_infoD0Ev) for i._ZN10__cxxabiv120__function_type_infoD0Ev
    lib_rtti_impl.o(.ARM.exidx) refers to lib_rtti_impl.o(i._ZN10__cxxabiv116__enum_type_infoD1Ev) for i._ZN10__cxxabiv116__enum_type_infoD1Ev
    lib_rtti_impl.o(.ARM.exidx) refers to lib_rtti_impl.o(i._ZN10__cxxabiv116__enum_type_infoD0Ev) for i._ZN10__cxxabiv116__enum_type_infoD0Ev
    lib_rtti_impl.o(.ARM.exidx) refers to lib_rtti_impl.o(i._ZN10__cxxabiv117__class_type_infoD1Ev) for i._ZN10__cxxabiv117__class_type_infoD1Ev
    lib_rtti_impl.o(.ARM.exidx) refers to lib_rtti_impl.o(i._ZN10__cxxabiv117__class_type_infoD0Ev) for i._ZN10__cxxabiv117__class_type_infoD0Ev
    lib_rtti_impl.o(.ARM.exidx) refers to lib_rtti_impl.o(i._ZN10__cxxabiv120__si_class_type_infoD1Ev) for i._ZN10__cxxabiv120__si_class_type_infoD1Ev
    lib_rtti_impl.o(.ARM.exidx) refers to lib_rtti_impl.o(i._ZN10__cxxabiv120__si_class_type_infoD0Ev) for i._ZN10__cxxabiv120__si_class_type_infoD0Ev
    lib_rtti_impl.o(.ARM.exidx) refers to lib_rtti_impl.o(i._ZN10__cxxabiv121__vmi_class_type_infoD1Ev) for i._ZN10__cxxabiv121__vmi_class_type_infoD1Ev
    lib_rtti_impl.o(.ARM.exidx) refers to lib_rtti_impl.o(i._ZN10__cxxabiv121__vmi_class_type_infoD0Ev) for i._ZN10__cxxabiv121__vmi_class_type_infoD0Ev
    lib_rtti_impl.o(.ARM.exidx) refers to lib_rtti_impl.o(i._ZN10__cxxabiv117__pbase_type_infoD1Ev) for i._ZN10__cxxabiv117__pbase_type_infoD1Ev
    lib_rtti_impl.o(.ARM.exidx) refers to lib_rtti_impl.o(i._ZN10__cxxabiv117__pbase_type_infoD0Ev) for i._ZN10__cxxabiv117__pbase_type_infoD0Ev
    lib_rtti_impl.o(.ARM.exidx) refers to lib_rtti_impl.o(i._ZN10__cxxabiv119__pointer_type_infoD1Ev) for i._ZN10__cxxabiv119__pointer_type_infoD1Ev
    lib_rtti_impl.o(.ARM.exidx) refers to lib_rtti_impl.o(i._ZN10__cxxabiv119__pointer_type_infoD0Ev) for i._ZN10__cxxabiv119__pointer_type_infoD0Ev
    lib_rtti_impl.o(.ARM.exidx) refers to lib_rtti_impl.o(i._ZN10__cxxabiv129__pointer_to_member_type_infoD1Ev) for i._ZN10__cxxabiv129__pointer_to_member_type_infoD1Ev
    lib_rtti_impl.o(.ARM.exidx) refers to lib_rtti_impl.o(i._ZN10__cxxabiv129__pointer_to_member_type_infoD0Ev) for i._ZN10__cxxabiv129__pointer_to_member_type_infoD0Ev
    aeabi_vec_ctor_nocookie_nodtor.o(.ARM.exidx) refers to aeabi_vec_ctor_nocookie_nodtor.o(i.__aeabi_vec_ctor_nocookie_nodtor) for i.__aeabi_vec_ctor_nocookie_nodtor
    aeabi_vec_ctor_nocookie_nodtor.o(.ARM.exidx) refers to unwind_pr0.o(.text) for __aeabi_unwind_cpp_pr0
    aeabi_vec_dtor_noexceptions.o(.ARM.exidx) refers to aeabi_vec_dtor_noexceptions.o(.text) for .text
    __rtentry.o(.ARM.Collect$$rtentry$$00000000) refers (Special) to __rtentry2.o(.ARM.Collect$$rtentry$$0000000A) for __rt_entry_li
    __rtentry.o(.ARM.Collect$$rtentry$$00000000) refers (Special) to __rtentry2.o(.ARM.Collect$$rtentry$$0000000D) for __rt_entry_main
    __rtentry.o(.ARM.Collect$$rtentry$$00000000) refers (Special) to __rtentry2.o(.ARM.Collect$$rtentry$$0000000B) for __rt_entry_postli_1
    __rtentry.o(.ARM.Collect$$rtentry$$00000000) refers (Special) to __rtentry2.o(.ARM.Collect$$rtentry$$00000009) for __rt_entry_postsh_1
    __rtentry.o(.ARM.Collect$$rtentry$$00000000) refers (Special) to __rtentry2.o(.ARM.Collect$$rtentry$$00000002) for __rt_entry_presh_1
    __rtentry.o(.ARM.Collect$$rtentry$$00000000) refers (Special) to __rtentry4.o(.ARM.Collect$$rtentry$$00000004) for __rt_entry_sh
    rtexit.o(.ARM.Collect$$rtexit$$00000000) refers (Special) to rtexit2.o(.ARM.Collect$$rtexit$$00000004) for __rt_exit_exit
    rtexit.o(.ARM.Collect$$rtexit$$00000000) refers (Special) to rtexit2.o(.ARM.Collect$$rtexit$$00000003) for __rt_exit_ls
    rtexit.o(.ARM.Collect$$rtexit$$00000000) refers (Special) to rtexit2.o(.ARM.Collect$$rtexit$$00000002) for __rt_exit_prels_1
    rtexit.o(.ARM.exidx) refers (Special) to rtexit2.o(.ARM.Collect$$rtexit$$00000004) for __rt_exit_exit
    rtexit.o(.ARM.exidx) refers (Special) to rtexit2.o(.ARM.Collect$$rtexit$$00000003) for __rt_exit_ls
    rtexit.o(.ARM.exidx) refers (Special) to rtexit2.o(.ARM.Collect$$rtexit$$00000002) for __rt_exit_prels_1
    rtexit.o(.ARM.exidx) refers to rtexit.o(.ARM.Collect$$rtexit$$00000000) for .ARM.Collect$$rtexit$$00000000
    rt_ctype_table.o(.text) refers to rt_locale_twolibspace.o(.text) for __rt_locale
    rt_ctype_table.o(.text) refers to lc_ctype_c.o(locale$$code) for _get_lc_ctype
    aeabi_ldiv0_sigfpe.o(.text) refers to rt_div0.o(.text) for __rt_div0
    rt_ddtor_pointer_addr.o(.text) refers to rt_ddtor_pointer_addr.o(.bss) for __rt_ddtor_pointer_addr_data
    rt_ddtor_pointer_addr_intlibspace.o(.text) refers to libspace.o(.bss) for __libspace_start
    rt_ddtor_pointer_addr_twolibspace.o(.text) refers to libspace.o(.text) for __user_perproc_libspace
    malloc.o(.text) refers (Special) to hguard.o(.text) for __heap$guard
    malloc.o(.text) refers (Special) to init_alloc.o(.text) for _init_alloc
    malloc.o(.text) refers to rt_heap_descriptor_twolibspace.o(.text) for __rt_heap_descriptor
    malloc.o(.text) refers to heapstubs.o(.text) for __Heap_Alloc
    free.o(.text) refers (Special) to hguard.o(.text) for __heap$guard
    free.o(.text) refers to rt_heap_descriptor_twolibspace.o(.text) for __rt_heap_descriptor
    free.o(.text) refers to heapstubs.o(.text) for __Heap_Free
    h1_alloc.o(.text) refers (Special) to h1_init_mt.o(.text) for __Heap_Initialize
    h1_alloc.o(.text) refers to rt_heap_descriptor_twolibspace.o(.text) for __rt_heap_descriptor
    h1_alloc.o(.text) refers to init_alloc.o(.text) for __Heap_Full
    h1_free.o(.text) refers to rt_heap_descriptor_twolibspace.o(.text) for __rt_heap_descriptor
    h1_alloc_mt.o(.text) refers (Special) to h1_init_mt.o(.text) for __Heap_Initialize
    h1_alloc_mt.o(.text) refers (Weak) to rtx_conf_cm.o(.text) for _mutex_acquire
    h1_alloc_mt.o(.text) refers (Weak) to rtx_conf_cm.o(.text) for _mutex_release
    h1_alloc_mt.o(.text) refers to init_alloc.o(.text) for __Heap_Full
    h1_alloc_mt.o(.text) refers (Weak) to rtx_conf_cm.o(.text) for _mutex_release
    h1_alloc_mt.o(.text) refers to rt_heap_descriptor_twolibspace.o(.text) for __rt_heap_descriptor
    h1_free_mt.o(.text) refers (Weak) to rtx_conf_cm.o(.text) for _mutex_acquire
    h1_free_mt.o(.text) refers (Weak) to rtx_conf_cm.o(.text) for _mutex_release
    h1_free_mt.o(.text) refers to rt_heap_descriptor_twolibspace.o(.text) for __rt_heap_descriptor
    heap2.o(i._FDIterate) refers to heap2.o(.conststring) for .conststring
    heap2.o(i.___Heap_ProvideMemory$realtime) refers to fdtree.o(i._FDTree_Delete) for _FDTree_Delete
    heap2.o(i.___Heap_ProvideMemory$realtime) refers to fdtree.o(i._FDTree_Insert) for _FDTree_Insert
    heap2.o(i.___Heap_Stats$realtime) refers to heap2.o(i._Heap2_StatsIterate) for _Heap2_StatsIterate
    heap2.o(i.___Heap_Valid$realtime) refers to heap2.o(i._FDIterate) for _FDIterate
    heap2.o(i.___Heap_Valid$realtime) refers to heap2.o(.conststring) for .conststring
    heap2.o(i._free$realtime) refers to rt_heap_descriptor_twolibspace.o(.text) for __rt_heap_descriptor
    heap2.o(i._free$realtime) refers to fdtree.o(i._FDTree_Delete) for _FDTree_Delete
    heap2.o(i._free$realtime) refers to fdtree.o(i._FDTree_Insert) for _FDTree_Insert
    heap2.o(i._malloc$realtime) refers to rt_heap_descriptor_twolibspace.o(.text) for __rt_heap_descriptor
    heap2.o(i._malloc$realtime) refers to fdtree.o(i._FDTree_FindFirst) for _FDTree_FindFirst
    heap2.o(i._malloc$realtime) refers to init_alloc.o(.text) for __Heap_Full
    heap2.o(i._malloc$realtime) refers to fdtree.o(i._FDTree_RemoveNode) for _FDTree_RemoveNode
    heap2.o(i._malloc$realtime) refers to fdtree.o(i._FDTree_Insert) for _FDTree_Insert
    heap2.o(i._posix_memalign$realtime) refers to rt_heap_descriptor_twolibspace.o(.text) for __rt_heap_descriptor
    heap2.o(i._posix_memalign$realtime) refers to fdtree.o(i._FDTree_FindFirst) for _FDTree_FindFirst
    heap2.o(i._posix_memalign$realtime) refers to init_alloc.o(.text) for __Heap_Full
    heap2.o(i._posix_memalign$realtime) refers to fdtree.o(i._FDTree_RemoveNode) for _FDTree_RemoveNode
    heap2.o(i._posix_memalign$realtime) refers to fdtree.o(i._FDTree_Insert) for _FDTree_Insert
    heap2.o(i._realloc$realtime) refers to rt_heap_descriptor_twolibspace.o(.text) for __rt_heap_descriptor
    heap2.o(i._realloc$realtime) refers to fdtree.o(i._FDTree_Insert) for _FDTree_Insert
    heap2.o(i._realloc$realtime) refers to h1_free_mt.o(.text) for free
    heap2.o(i._realloc$realtime) refers to h1_alloc_mt.o(.text) for malloc
    heap2.o(i._realloc$realtime) refers to fdtree.o(i._FDTree_Delete) for _FDTree_Delete
    heap2.o(i._realloc$realtime) refers to rt_memcpy_w.o(.text) for __aeabi_memcpy4
    heap2mt.o(i._FDIterate) refers to heap2mt.o(.conststring) for .conststring
    heap2mt.o(i.___Heap_Initialize$realtime$concurrent) refers to rtx_conf_cm.o(.text) for _mutex_initialize
    heap2mt.o(i.___Heap_ProvideMemory$realtime$concurrent) refers to fdtree.o(i._FDTree_Delete) for _FDTree_Delete
    heap2mt.o(i.___Heap_ProvideMemory$realtime$concurrent) refers to fdtree.o(i._FDTree_Insert) for _FDTree_Insert
    heap2mt.o(i.___Heap_Stats$realtime$concurrent) refers (Weak) to rtx_conf_cm.o(.text) for _mutex_acquire
    heap2mt.o(i.___Heap_Stats$realtime$concurrent) refers to heap2mt.o(i._Heap2_StatsIterate) for _Heap2_StatsIterate
    heap2mt.o(i.___Heap_Stats$realtime$concurrent) refers (Weak) to rtx_conf_cm.o(.text) for _mutex_release
    heap2mt.o(i.___Heap_Valid$realtime$concurrent) refers (Weak) to rtx_conf_cm.o(.text) for _mutex_acquire
    heap2mt.o(i.___Heap_Valid$realtime$concurrent) refers to heap2mt.o(i._FDIterate) for _FDIterate
    heap2mt.o(i.___Heap_Valid$realtime$concurrent) refers (Weak) to rtx_conf_cm.o(.text) for _mutex_release
    heap2mt.o(i.___Heap_Valid$realtime$concurrent) refers to heap2mt.o(.conststring) for .conststring
    heap2mt.o(i._free$realtime$concurrent) refers to rt_heap_descriptor_twolibspace.o(.text) for __rt_heap_descriptor
    heap2mt.o(i._free$realtime$concurrent) refers (Weak) to rtx_conf_cm.o(.text) for _mutex_acquire
    heap2mt.o(i._free$realtime$concurrent) refers to fdtree.o(i._FDTree_Delete) for _FDTree_Delete
    heap2mt.o(i._free$realtime$concurrent) refers to fdtree.o(i._FDTree_Insert) for _FDTree_Insert
    heap2mt.o(i._free$realtime$concurrent) refers (Weak) to rtx_conf_cm.o(.text) for _mutex_release
    heap2mt.o(i._malloc$realtime$concurrent) refers to rt_heap_descriptor_twolibspace.o(.text) for __rt_heap_descriptor
    heap2mt.o(i._malloc$realtime$concurrent) refers (Weak) to rtx_conf_cm.o(.text) for _mutex_acquire
    heap2mt.o(i._malloc$realtime$concurrent) refers to fdtree.o(i._FDTree_FindFirst) for _FDTree_FindFirst
    heap2mt.o(i._malloc$realtime$concurrent) refers to init_alloc.o(.text) for __Heap_Full
    heap2mt.o(i._malloc$realtime$concurrent) refers to fdtree.o(i._FDTree_RemoveNode) for _FDTree_RemoveNode
    heap2mt.o(i._malloc$realtime$concurrent) refers to fdtree.o(i._FDTree_Insert) for _FDTree_Insert
    heap2mt.o(i._malloc$realtime$concurrent) refers (Weak) to rtx_conf_cm.o(.text) for _mutex_release
    heap2mt.o(i._malloc$realtime$concurrent) refers (Weak) to rtx_conf_cm.o(.text) for _mutex_release
    heap2mt.o(i._posix_memalign$realtime$concurrent) refers to rt_heap_descriptor_twolibspace.o(.text) for __rt_heap_descriptor
    heap2mt.o(i._posix_memalign$realtime$concurrent) refers (Weak) to rtx_conf_cm.o(.text) for _mutex_acquire
    heap2mt.o(i._posix_memalign$realtime$concurrent) refers to fdtree.o(i._FDTree_FindFirst) for _FDTree_FindFirst
    heap2mt.o(i._posix_memalign$realtime$concurrent) refers to init_alloc.o(.text) for __Heap_Full
    heap2mt.o(i._posix_memalign$realtime$concurrent) refers to fdtree.o(i._FDTree_RemoveNode) for _FDTree_RemoveNode
    heap2mt.o(i._posix_memalign$realtime$concurrent) refers to fdtree.o(i._FDTree_Insert) for _FDTree_Insert
    heap2mt.o(i._posix_memalign$realtime$concurrent) refers (Weak) to rtx_conf_cm.o(.text) for _mutex_release
    heap2mt.o(i._realloc$realtime$concurrent) refers to rt_heap_descriptor_twolibspace.o(.text) for __rt_heap_descriptor
    heap2mt.o(i._realloc$realtime$concurrent) refers (Weak) to rtx_conf_cm.o(.text) for _mutex_acquire
    heap2mt.o(i._realloc$realtime$concurrent) refers to fdtree.o(i._FDTree_Insert) for _FDTree_Insert
    heap2mt.o(i._realloc$realtime$concurrent) refers to h1_free_mt.o(.text) for free
    heap2mt.o(i._realloc$realtime$concurrent) refers to h1_alloc_mt.o(.text) for malloc
    heap2mt.o(i._realloc$realtime$concurrent) refers to fdtree.o(i._FDTree_Delete) for _FDTree_Delete
    heap2mt.o(i._realloc$realtime$concurrent) refers (Weak) to rtx_conf_cm.o(.text) for _mutex_release
    heap2mt.o(i._realloc$realtime$concurrent) refers to rt_memcpy_w.o(.text) for __aeabi_memcpy4
    heap2mt.o(i._realloc$realtime$concurrent) refers (Weak) to rtx_conf_cm.o(.text) for _mutex_release
    heap2mt.o(i._realloc$realtime$concurrent) refers (Weak) to rtx_conf_cm.o(.text) for _mutex_release
    _printf_char_common.o(.text) refers to __printf.o(.text) for __printf
    _printf_char.o(.text) refers (Weak) to _printf_str.o(.text) for _printf_str
    cxa_finalize.o(.text) refers (Special) to libshutdown2.o(.ARM.Collect$$libshutdown$$00000001) for __rt_lib_shutdown_cpp_2
    cxa_finalize.o(.text) refers to rt_ddtor_pointer_addr_twolibspace.o(.text) for __rt_ddtor_pointer_addr
    cxa_finalize.o(.text) refers to h1_free_mt.o(.text) for free
    cxa_finalize.o(.ARM.exidx) refers (Special) to libshutdown2.o(.ARM.Collect$$libshutdown$$00000001) for __rt_lib_shutdown_cpp_2
    cxa_finalize.o(.ARM.exidx) refers to cxa_finalize.o(.text) for .text
    libinit2.o(.ARM.Collect$$libinit$$00000005) refers (Weak) to init_alloc.o(.text) for _init_alloc
    libinit2.o(.ARM.Collect$$libinit$$0000000F) refers (Weak) to rt_locale_twolibspace.o(.text) for __rt_locale
    libinit2.o(.ARM.Collect$$libinit$$00000010) refers to libinit2.o(.ARM.Collect$$libinit$$0000000F) for .ARM.Collect$$libinit$$0000000F
    libinit2.o(.ARM.Collect$$libinit$$00000012) refers to libinit2.o(.ARM.Collect$$libinit$$0000000F) for .ARM.Collect$$libinit$$0000000F
    libinit2.o(.ARM.Collect$$libinit$$00000012) refers (Weak) to lc_ctype_c.o(locale$$code) for _get_lc_ctype
    libinit2.o(.ARM.Collect$$libinit$$00000014) refers to libinit2.o(.ARM.Collect$$libinit$$0000000F) for .ARM.Collect$$libinit$$0000000F
    libinit2.o(.ARM.Collect$$libinit$$00000016) refers to libinit2.o(.ARM.Collect$$libinit$$0000000F) for .ARM.Collect$$libinit$$0000000F
    libinit2.o(.ARM.Collect$$libinit$$00000018) refers to libinit2.o(.ARM.Collect$$libinit$$0000000F) for .ARM.Collect$$libinit$$0000000F
    libinit2.o(.ARM.Collect$$libinit$$00000026) refers to argv_veneer.o(.emb_text) for __ARM_argv_veneer
    libinit2.o(.ARM.Collect$$libinit$$00000027) refers to argv_veneer.o(.emb_text) for __ARM_argv_veneer
    libinit2.o(.ARM.Collect$$libinit$$00000031) refers (Weak) to init_aeabi.o(.text) for __cpp_initialize__aeabi_
    new.o(i._Znwj) refers to rt_new_handler_addr_twolibspace.o(.text) for __rt_new_handler_addr
    new.o(i._Znwj) refers to h1_alloc_mt.o(.text) for malloc
    new.o(i._Znwj) refers to arm_newhandler_noexceptions.o(.text) for __default_new_handler()
    new.o(.ARM.exidx) refers to new.o(i._Znwj) for i._Znwj
    new.o(.ARM.exidx) refers to unwind_pr0.o(.text) for __aeabi_unwind_cpp_pr0
    new.o(.ARM.exidx) refers to new.o(.ARM.extab) for .extab._Znwj
    new.o(.ARM.extab) refers to arm_callunex_noexceptions.o(.text) for __cxa_call_unexpected
    new.o(.ARM.extab) refers to bad_alloc_dtor.o(.constdata__ZTISt9bad_alloc) for typeinfo for std::bad_alloc
    arm_callunex_noexceptions.o(.ARM.exidx) refers to arm_callunex_noexceptions.o(.text) for .text
    bad_alloc_dtor.o(i._ZNSt9bad_allocD0Ev) refers to bad_alloc_dtor.o(i._ZNSt9bad_allocD1Ev) for std::bad_alloc::~bad_alloc()
    bad_alloc_dtor.o(i._ZNSt9bad_allocD0Ev) refers to delete.o(i._ZdlPv) for operator delete (void*)
    bad_alloc_dtor.o(.ARM.exidx) refers to bad_alloc_dtor.o(i._ZNSt9bad_allocD1Ev) for i._ZNSt9bad_allocD1Ev
    bad_alloc_dtor.o(.ARM.exidx) refers to bad_alloc_dtor.o(i._ZNSt9bad_allocD0Ev) for i._ZNSt9bad_allocD0Ev
    type_info_dtor.o(.ARM.exidx) refers to type_info_dtor.o(i._ZNSt9type_infoD1Ev) for i._ZNSt9type_infoD1Ev
    type_info_dtor.o(.ARM.exidx) refers to type_info_dtor.o(i._ZNSt9type_infoD0Ev) for i._ZNSt9type_infoD0Ev
    arm_exceptions_callterm.o(.text) refers to arm_exceptions_globs.o(.text) for __cxa_get_globals
    arm_exceptions_callterm.o(.text) refers to arm_exceptions_support.o(.text) for __ARM::is_foreign_exception(_Unwind_Control_Block*)
    arm_exceptions_callterm.o(.text) refers to arm_exceptions_terminate.o(.text) for std::terminate()
    arm_exceptions_callterm.o(.ARM.exidx) refers to arm_exceptions_callterm.o(.text) for .text
    unwind_pr0.o(.text) refers to unwind_prcommon.o(.text) for __ARM_unwind_cpp_prcommon
    unwind_pr0.o(.ARM.exidx) refers to unwind_pr0.o(.text) for .text
    __rtentry2.o(.ARM.Collect$$rtentry$$00000008) refers to boardinit2.o(.text) for _platform_post_stackheap_init
    __rtentry2.o(.ARM.Collect$$rtentry$$0000000A) refers to libinit.o(.ARM.Collect$$libinit$$00000000) for __rt_lib_init
    __rtentry2.o(.ARM.Collect$$rtentry$$0000000B) refers to rtx_conf_cm.o(.emb_text) for _platform_post_lib_init
    __rtentry2.o(.ARM.Collect$$rtentry$$0000000D) refers to rxf_behaviorpkg.o(.text) for main
    __rtentry2.o(.ARM.Collect$$rtentry$$0000000D) refers to exit.o(.text) for exit
    __rtentry2.o(.ARM.exidx) refers to __rtentry2.o(.ARM.Collect$$rtentry$$00000001) for .ARM.Collect$$rtentry$$00000001
    __rtentry2.o(.ARM.exidx) refers to __rtentry2.o(.ARM.Collect$$rtentry$$00000008) for .ARM.Collect$$rtentry$$00000008
    __rtentry2.o(.ARM.exidx) refers to __rtentry2.o(.ARM.Collect$$rtentry$$0000000A) for .ARM.Collect$$rtentry$$0000000A
    __rtentry2.o(.ARM.exidx) refers to __rtentry2.o(.ARM.Collect$$rtentry$$0000000B) for .ARM.Collect$$rtentry$$0000000B
    __rtentry2.o(.ARM.exidx) refers to __rtentry2.o(.ARM.Collect$$rtentry$$0000000D) for .ARM.Collect$$rtentry$$0000000D
    __rtentry4.o(.ARM.Collect$$rtentry$$00000004) refers to sys_stackheap_outer.o(.text) for __user_setup_stackheap
    __rtentry4.o(.ARM.exidx) refers to __rtentry4.o(.ARM.Collect$$rtentry$$00000004) for .ARM.Collect$$rtentry$$00000004
    rtexit2.o(.ARM.Collect$$rtexit$$00000003) refers to libshutdown.o(.ARM.Collect$$libshutdown$$00000000) for __rt_lib_shutdown
    rtexit2.o(.ARM.Collect$$rtexit$$00000004) refers to sys_exit.o(.text) for _sys_exit
    rtexit2.o(.ARM.exidx) refers to rtexit2.o(.ARM.Collect$$rtexit$$00000001) for .ARM.Collect$$rtexit$$00000001
    rtexit2.o(.ARM.exidx) refers to rtexit2.o(.ARM.Collect$$rtexit$$00000003) for .ARM.Collect$$rtexit$$00000003
    rtexit2.o(.ARM.exidx) refers to rtexit2.o(.ARM.Collect$$rtexit$$00000004) for .ARM.Collect$$rtexit$$00000004
    rt_div0.o(.text) refers to defsig_fpe_outer.o(.text) for __rt_SIGFPE
    rt_heap_descriptor.o(.text) refers to rt_heap_descriptor.o(.bss) for __rt_heap_descriptor_data
    rt_heap_descriptor_intlibspace.o(.text) refers to libspace.o(.bss) for __libspace_start
    rt_heap_descriptor_twolibspace.o(.text) refers to libspace.o(.text) for __user_perproc_libspace
    rt_locale.o(.text) refers to rt_locale.o(.bss) for __rt_locale_data
    rt_locale_intlibspace.o(.text) refers to libspace.o(.bss) for __libspace_start
    rt_locale_twolibspace.o(.text) refers to libspace.o(.text) for __user_perproc_libspace
    rt_new_handler_addr.o(.text) refers to rt_new_handler_addr.o(.bss) for __rt_new_handler_addr_data
    rt_new_handler_addr_intlibspace.o(.text) refers to libspace.o(.bss) for __libspace_start
    rt_new_handler_addr_twolibspace.o(.text) refers to libspace.o(.text) for __user_perproc_libspace
    init_alloc.o(.text) refers (Special) to hguard.o(.text) for __heap$guard
    init_alloc.o(.text) refers (Special) to libinit2.o(.ARM.Collect$$libinit$$00000005) for __rt_lib_init_heap_2
    init_alloc.o(.text) refers (Special) to maybetermalloc1.o(.emb_text) for _maybe_terminate_alloc
    init_alloc.o(.text) refers to h1_extend_mt.o(.text) for __Heap_ProvideMemory
    init_alloc.o(.text) refers to defsig_rtmem_outer.o(.text) for __rt_SIGRTMEM
    init_alloc.o(.text) refers to rt_heap_descriptor_twolibspace.o(.text) for __rt_heap_descriptor
    init_alloc.o(.text) refers to h1_init_mt.o(.text) for __Heap_Initialize
    h1_init_mt.o(.text) refers to rtx_conf_cm.o(.text) for _mutex_initialize
    lc_ctype_c.o(locale$$data) refers (Special) to libinit2.o(.ARM.Collect$$libinit$$00000012) for __rt_lib_init_lc_ctype_2
    lc_ctype_c.o(locale$$code) refers (Special) to libinit2.o(.ARM.Collect$$libinit$$00000012) for __rt_lib_init_lc_ctype_2
    lc_ctype_c.o(locale$$code) refers to strcmpv7m.o(.text) for strcmp
    lc_ctype_c.o(locale$$code) refers to lc_ctype_c.o(locale$$data) for __lcctype_c_name
    _get_argv.o(.text) refers (Special) to hrguard.o(.text) for __heap_region$guard
    _get_argv.o(.text) refers to h1_alloc_mt.o(.text) for malloc
    _get_argv.o(.text) refers to defsig_rtmem_outer.o(.text) for __rt_SIGRTMEM
    _get_argv.o(.text) refers to sys_command.o(.text) for _sys_command_string
    argv_veneer.o(.emb_text) refers to no_argv.o(.text) for __ARM_get_argv
    libshutdown2.o(.ARM.Collect$$libshutdown$$00000001) refers (Weak) to cxa_finalize.o(.text) for __cxa_finalize
    libshutdown2.o(.ARM.Collect$$libshutdown$$0000000D) refers (Weak) to term_alloc.o(.text) for _terminate_alloc
    arm_begincatch_noexceptions.o(.ARM.exidx) refers to arm_begincatch_noexceptions.o(.text) for .text
    arm_newhandler_noexceptions.o(.text) refers to arm_exceptions_terminate.o(.text) for std::terminate()
    arm_newhandler_noexceptions.o(.ARM.exidx) refers to arm_newhandler_noexceptions.o(.text) for .text
    bad_alloc_what.o(.ARM.exidx) refers to bad_alloc_what.o(i._ZNKSt9bad_alloc4whatEv) for i._ZNKSt9bad_alloc4whatEv
    exception_dtor.o(i._ZNSt9exceptionD0Ev) refers to delete.o(i._ZdlPv) for operator delete (void*)
    exception_dtor.o(.ARM.exidx) refers to exception_dtor.o(i._ZNSt9exceptionD1Ev) for i._ZNSt9exceptionD1Ev
    exception_dtor.o(.ARM.exidx) refers to exception_dtor.o(i._ZNSt9exceptionD0Ev) for i._ZNSt9exceptionD0Ev
    arm_exceptions_support.o(.text) refers to arm_exceptions_support.o(.constdata) for .constdata
    arm_exceptions_support.o(.ARM.exidx) refers to arm_exceptions_support.o(.text) for .text
    arm_exceptions_terminate.o(.text) refers to arm_exceptions_globs.o(.text) for __cxa_get_globals
    arm_exceptions_terminate.o(.text) refers to abort.o(.text) for abort
    arm_exceptions_terminate.o(.ARM.exidx) refers to arm_exceptions_terminate.o(.text) for .text
    arm_exceptions_globs.o(.text) refers to abort.o(.text) for abort
    arm_exceptions_globs.o(.text) refers to rt_eh_globals_addr_twolibspace.o(.text) for __rt_eh_globals_addr
    arm_exceptions_globs.o(.text) refers to h1_alloc_mt.o(.text) for malloc
    arm_exceptions_globs.o(.text) refers to arm_exceptions_mem.o(.text) for __ARM_exceptions_buffer_init
    arm_exceptions_globs.o(.ARM.exidx) refers to arm_exceptions_globs.o(.text) for .text
    unwind_prcommon.o(.text) refers to unwinder.o(.text) for _Unwind_VRS_Get
    unwind_prcommon.o(.text) refers to unwind_activity.o(.emb_text) for _Unwind_Activity
    unwind_prcommon.o(.text) refers (Weak) to arm_callunex_noexceptions.o(.text) for __cxa_call_unexpected
    unwind_prcommon.o(.ARM.exidx) refers to unwind_prcommon.o(.text) for .text
    sys_command.o(.text) refers (Special) to use_no_semi.o(.text) for __I$use$semihosting
    sys_command.o(.text) refers (Special) to indicate_semi.o(.text) for __semihosting_library_function
    sys_exit.o(.text) refers (Special) to use_no_semi.o(.text) for __I$use$semihosting
    sys_exit.o(.text) refers (Special) to indicate_semi.o(.text) for __semihosting_library_function
    sys_stackheap_outer.o(.text) refers to libspace.o(.text) for __user_perproc_libspace
    sys_stackheap_outer.o(.text) refers to startup_lpc17xx.o(.text) for __user_initial_stackheap
    rt_eh_globals_addr.o(.text) refers to rt_eh_globals_addr.o(.bss) for __rt_eh_globals_addr_data
    rt_eh_globals_addr_intlibspace.o(.text) refers to libspace.o(.bss) for __libspace_start
    rt_eh_globals_addr_twolibspace.o(.text) refers to libspace.o(.text) for __user_perproc_libspace
    maybetermalloc2.o(.emb_text) refers (Special) to term_alloc.o(.text) for _terminate_alloc
    h1_extend.o(.text) refers to h1_free_mt.o(.text) for free
    h1_extend_mt.o(.text) refers to h1_free_mt.o(.text) for _free_internal
    abort.o(.text) refers to defsig_abrt_outer.o(.text) for __rt_SIGABRT
    abort.o(.text) refers (Weak) to libshutdown.o(.ARM.Collect$$libshutdown$$00000000) for __rt_lib_shutdown
    abort.o(.text) refers to sys_exit.o(.text) for _sys_exit
    defsig_fpe_outer.o(.text) refers to defsig_fpe_inner.o(.text) for __rt_SIGFPE_inner
    defsig_fpe_outer.o(.text) refers to defsig_exit.o(.text) for __sig_exit
    defsig_fpe_formal.o(.text) refers to rt_raise.o(.text) for __rt_raise
    defsig_rtmem_outer.o(.text) refers to defsig_rtmem_inner.o(.text) for __rt_SIGRTMEM_inner
    defsig_rtmem_outer.o(.text) refers to defsig_exit.o(.text) for __sig_exit
    defsig_rtmem_formal.o(.text) refers to rt_raise.o(.text) for __rt_raise
    heapauxa.o(.text) refers to heapauxa.o(.data) for .data
    _get_argv_nomalloc.o(.text) refers (Special) to hrguard.o(.text) for __heap_region$guard
    _get_argv_nomalloc.o(.text) refers to defsig_rtmem_outer.o(.text) for __rt_SIGRTMEM
    _get_argv_nomalloc.o(.text) refers to sys_command.o(.text) for _sys_command_string
    libinit.o(.ARM.Collect$$libinit$$00000000) refers (Special) to libinit2.o(.ARM.Collect$$libinit$$0000002E) for __rt_lib_init_alloca_1
    libinit.o(.ARM.Collect$$libinit$$00000000) refers (Special) to libinit2.o(.ARM.Collect$$libinit$$0000002C) for __rt_lib_init_argv_1
    libinit.o(.ARM.Collect$$libinit$$00000000) refers (Special) to libinit2.o(.ARM.Collect$$libinit$$0000001B) for __rt_lib_init_atexit_1
    libinit.o(.ARM.Collect$$libinit$$00000000) refers (Special) to libinit2.o(.ARM.Collect$$libinit$$00000021) for __rt_lib_init_clock_1
    libinit.o(.ARM.Collect$$libinit$$00000000) refers (Special) to libinit2.o(.ARM.Collect$$libinit$$00000032) for __rt_lib_init_cpp_1
    libinit.o(.ARM.Collect$$libinit$$00000000) refers (Special) to libinit2.o(.ARM.Collect$$libinit$$00000030) for __rt_lib_init_exceptions_1
    libinit.o(.ARM.Collect$$libinit$$00000000) refers (Special) to libinit2.o(.ARM.Collect$$libinit$$00000002) for __rt_lib_init_fp_1
    libinit.o(.ARM.Collect$$libinit$$00000000) refers (Special) to libinit2.o(.ARM.Collect$$libinit$$0000001F) for __rt_lib_init_fp_trap_1
    libinit.o(.ARM.Collect$$libinit$$00000000) refers (Special) to libinit2.o(.ARM.Collect$$libinit$$00000023) for __rt_lib_init_getenv_1
    libinit.o(.ARM.Collect$$libinit$$00000000) refers (Special) to libinit2.o(.ARM.Collect$$libinit$$0000000A) for __rt_lib_init_heap_1
    libinit.o(.ARM.Collect$$libinit$$00000000) refers (Special) to libinit2.o(.ARM.Collect$$libinit$$00000011) for __rt_lib_init_lc_collate_1
    libinit.o(.ARM.Collect$$libinit$$00000000) refers (Special) to libinit2.o(.ARM.Collect$$libinit$$00000013) for __rt_lib_init_lc_ctype_1
    libinit.o(.ARM.Collect$$libinit$$00000000) refers (Special) to libinit2.o(.ARM.Collect$$libinit$$00000015) for __rt_lib_init_lc_monetary_1
    libinit.o(.ARM.Collect$$libinit$$00000000) refers (Special) to libinit2.o(.ARM.Collect$$libinit$$00000017) for __rt_lib_init_lc_numeric_1
    libinit.o(.ARM.Collect$$libinit$$00000000) refers (Special) to libinit2.o(.ARM.Collect$$libinit$$00000019) for __rt_lib_init_lc_time_1
    libinit.o(.ARM.Collect$$libinit$$00000000) refers (Special) to libinit2.o(.ARM.Collect$$libinit$$00000004) for __rt_lib_init_preinit_1
    libinit.o(.ARM.Collect$$libinit$$00000000) refers (Special) to libinit2.o(.ARM.Collect$$libinit$$0000000E) for __rt_lib_init_rand_1
    libinit.o(.ARM.Collect$$libinit$$00000000) refers (Special) to libinit2.o(.ARM.Collect$$libinit$$00000033) for __rt_lib_init_return
    libinit.o(.ARM.Collect$$libinit$$00000000) refers (Special) to libinit2.o(.ARM.Collect$$libinit$$0000001D) for __rt_lib_init_signal_1
    libinit.o(.ARM.Collect$$libinit$$00000000) refers (Special) to libinit2.o(.ARM.Collect$$libinit$$00000025) for __rt_lib_init_stdio_1
    libinit.o(.ARM.Collect$$libinit$$00000000) refers (Special) to libinit2.o(.ARM.Collect$$libinit$$0000000C) for __rt_lib_init_user_alloc_1
    libshutdown.o(.ARM.Collect$$libshutdown$$00000000) refers (Special) to libshutdown2.o(.ARM.Collect$$libshutdown$$00000002) for __rt_lib_shutdown_cpp_1
    libshutdown.o(.ARM.Collect$$libshutdown$$00000000) refers (Special) to libshutdown2.o(.ARM.Collect$$libshutdown$$00000007) for __rt_lib_shutdown_fp_trap_1
    libshutdown.o(.ARM.Collect$$libshutdown$$00000000) refers (Special) to libshutdown2.o(.ARM.Collect$$libshutdown$$0000000F) for __rt_lib_shutdown_heap_1
    libshutdown.o(.ARM.Collect$$libshutdown$$00000000) refers (Special) to libshutdown2.o(.ARM.Collect$$libshutdown$$00000010) for __rt_lib_shutdown_return
    libshutdown.o(.ARM.Collect$$libshutdown$$00000000) refers (Special) to libshutdown2.o(.ARM.Collect$$libshutdown$$0000000A) for __rt_lib_shutdown_signal_1
    libshutdown.o(.ARM.Collect$$libshutdown$$00000000) refers (Special) to libshutdown2.o(.ARM.Collect$$libshutdown$$00000004) for __rt_lib_shutdown_stdio_1
    libshutdown.o(.ARM.Collect$$libshutdown$$00000000) refers (Special) to libshutdown2.o(.ARM.Collect$$libshutdown$$0000000C) for __rt_lib_shutdown_user_alloc_1
    exception_what.o(.ARM.exidx) refers to exception_what.o(i._ZNKSt9exception4whatEv) for i._ZNKSt9exception4whatEv
    arm_exceptions_mem.o(.text) refers to h1_alloc_mt.o(.text) for malloc
    arm_exceptions_mem.o(.ARM.exidx) refers to arm_exceptions_mem.o(.text) for .text
    unwinder.o(.emb_text) refers to unwinder.o(.text) for __ARM_Unwind_RaiseException
    unwinder.o(.text) refers to bsearchnoex.o(.text) for bsearch
    unwinder.o(.text) refers to unwind_activity.o(.emb_text) for _Unwind_Activity
    unwinder.o(.text) refers to abort.o(.text) for abort
    unwinder.o(.text) refers to unwinder.o(.emb_text) for __ARM_Unwind_VRS_corerestore
    unwinder.o(.text) refers to h1_alloc_mt.o(.text) for malloc
    unwinder.o(.text) refers to rt_memcpy_w.o(.text) for __aeabi_memcpy4
    unwinder.o(.text) refers to h1_free_mt.o(.text) for free
    unwinder.o(.text) refers (Weak) to unwind_pr0.o(.text) for __aeabi_unwind_cpp_pr0
    unwinder.o(.ARM.exidx) refers to unwinder.o(.text) for .text
    rt_raise.o(.text) refers to __raise.o(.text) for __raise
    rt_raise.o(.text) refers to sys_exit.o(.text) for _sys_exit
    term_alloc.o(.text) refers (Special) to libshutdown2.o(.ARM.Collect$$libshutdown$$0000000E) for __rt_lib_shutdown_heap_2
    term_alloc.o(.text) refers to rt_heap_descriptor_twolibspace.o(.text) for __rt_heap_descriptor
    term_alloc.o(.text) refers to h1_final_mt.o(.text) for __Heap_Finalize
    defsig_exit.o(.text) refers to sys_exit.o(.text) for _sys_exit
    defsig_abrt_outer.o(.text) refers to defsig_abrt_inner.o(.text) for __rt_SIGABRT_inner
    defsig_abrt_outer.o(.text) refers to defsig_exit.o(.text) for __sig_exit
    defsig_abrt_formal.o(.text) refers to rt_raise.o(.text) for __rt_raise
    defsig_fpe_inner.o(.text) refers to defsig_general.o(.text) for __default_signal_display
    defsig_rtmem_inner.o(.text) refers to defsig_general.o(.text) for __default_signal_display
    __raise.o(.text) refers to defsig.o(CL$$defsig) for __default_signal_handler
    defsig_general.o(.text) refers to sys_wrch.o(.text) for _ttywrch
    defsig_abrt_inner.o(.text) refers to defsig_general.o(.text) for __default_signal_display
    sys_wrch.o(.text) refers (Special) to use_no_semi.o(.text) for __I$use$semihosting
    sys_wrch.o(.text) refers (Special) to indicate_semi.o(.text) for __semihosting_library_function
    defsig.o(CL$$defsig) refers to defsig_abrt_inner.o(.text) for __rt_SIGABRT_inner
    defsig.o(CL$$defsig) refers to defsig_fpe_inner.o(.text) for __rt_SIGFPE_inner
    defsig.o(CL$$defsig) refers to defsig_rtmem_inner.o(.text) for __rt_SIGRTMEM_inner
    defsig_rtred_inner.o(.text) refers to defsig_general.o(.text) for __default_signal_display
    defsig_stak_inner.o(.text) refers to defsig_general.o(.text) for __default_signal_display
    defsig_pvfn_inner.o(.text) refers to defsig_general.o(.text) for __default_signal_display
    defsig_cppl_inner.o(.text) refers to defsig_general.o(.text) for __default_signal_display
    defsig_segv_inner.o(.text) refers to defsig_general.o(.text) for __default_signal_display
    defsig_other.o(.text) refers to defsig_general.o(.text) for __default_signal_display
    defaultpkg.o(.constdata__ZTV8evToggle) refers to defaultpkg.o(.constdata__ZTI8evToggle) for typeinfo for evToggle
    defaultpkg.o(.constdata__ZTV8evToggle) refers to defaultpkg.o(i._ZN8evToggleD1Ev) for evToggle::~evToggle()
    defaultpkg.o(.constdata__ZTV8evToggle) refers to defaultpkg.o(i._ZN8evToggleD0Ev) for evToggle::~evToggle__deallocating()
    defaultpkg.o(.constdata__ZTV8evToggle) refers to defaultpkg.o(.text) for evToggle::isTypeOf(short) const
    defaultpkg.o(.constdata__ZTV4evOn) refers to defaultpkg.o(.constdata__ZTI4evOn) for typeinfo for evOn
    defaultpkg.o(.constdata__ZTV4evOn) refers to defaultpkg.o(i._ZN4evOnD1Ev) for evOn::~evOn()
    defaultpkg.o(.constdata__ZTV4evOn) refers to defaultpkg.o(i._ZN4evOnD0Ev) for evOn::~evOn__deallocating()
    defaultpkg.o(.constdata__ZTV4evOn) refers to defaultpkg.o(.text) for evOn::isTypeOf(short) const
    defaultpkg.o(.constdata__ZTV5evOff) refers to defaultpkg.o(.constdata__ZTI5evOff) for typeinfo for evOff
    defaultpkg.o(.constdata__ZTV5evOff) refers to defaultpkg.o(i._ZN5evOffD1Ev) for evOff::~evOff()
    defaultpkg.o(.constdata__ZTV5evOff) refers to defaultpkg.o(i._ZN5evOffD0Ev) for evOff::~evOff__deallocating()
    defaultpkg.o(.constdata__ZTV5evOff) refers to defaultpkg.o(.text) for evOff::isTypeOf(short) const
    defaultpkg.o(.constdata__ZTV14evReceivedData) refers to defaultpkg.o(.constdata__ZTI14evReceivedData) for typeinfo for evReceivedData
    defaultpkg.o(.constdata__ZTV14evReceivedData) refers to defaultpkg.o(i._ZN14evReceivedDataD1Ev) for evReceivedData::~evReceivedData()
    defaultpkg.o(.constdata__ZTV14evReceivedData) refers to defaultpkg.o(i._ZN14evReceivedDataD0Ev) for evReceivedData::~evReceivedData__deallocating()
    defaultpkg.o(.constdata__ZTV14evReceivedData) refers to defaultpkg.o(.text) for evReceivedData::isTypeOf(short) const
    defaultpkg.o(.constdata__ZTV21evNewJoystickPosition) refers to defaultpkg.o(.constdata__ZTI21evNewJoystickPosition) for typeinfo for evNewJoystickPosition
    defaultpkg.o(.constdata__ZTV21evNewJoystickPosition) refers to defaultpkg.o(i._ZN21evNewJoystickPositionD1Ev) for evNewJoystickPosition::~evNewJoystickPosition()
    defaultpkg.o(.constdata__ZTV21evNewJoystickPosition) refers to defaultpkg.o(i._ZN21evNewJoystickPositionD0Ev) for evNewJoystickPosition::~evNewJoystickPosition__deallocating()
    defaultpkg.o(.constdata__ZTV21evNewJoystickPosition) refers to defaultpkg.o(.text) for evNewJoystickPosition::isTypeOf(short) const
    defaultpkg.o(.constdata__ZTV7evBlink) refers to defaultpkg.o(.constdata__ZTI7evBlink) for typeinfo for evBlink
    defaultpkg.o(.constdata__ZTV7evBlink) refers to defaultpkg.o(i._ZN7evBlinkD1Ev) for evBlink::~evBlink()
    defaultpkg.o(.constdata__ZTV7evBlink) refers to defaultpkg.o(i._ZN7evBlinkD0Ev) for evBlink::~evBlink__deallocating()
    defaultpkg.o(.constdata__ZTV7evBlink) refers to defaultpkg.o(.text) for evBlink::isTypeOf(short) const
    defaultpkg.o(.ARM.exidx) refers to defaultpkg.o(i._ZN8evToggleD1Ev) for i._ZN8evToggleD1Ev
    defaultpkg.o(.ARM.exidx) refers to defaultpkg.o(i._ZN4evOnD1Ev) for i._ZN4evOnD1Ev
    defaultpkg.o(.ARM.exidx) refers to defaultpkg.o(i._ZN5evOffD1Ev) for i._ZN5evOffD1Ev
    defaultpkg.o(.ARM.exidx) refers to defaultpkg.o(i._ZN14evReceivedDataD1Ev) for i._ZN14evReceivedDataD1Ev
    defaultpkg.o(.ARM.exidx) refers to defaultpkg.o(i._ZN21evNewJoystickPositionD1Ev) for i._ZN21evNewJoystickPositionD1Ev
    defaultpkg.o(.ARM.exidx) refers to defaultpkg.o(i._ZN7evBlinkD1Ev) for i._ZN7evBlinkD1Ev
    defaultpkg.o(CODE_RXF_RUNNING_FAST) refers to defaultpkg.o(.constdata__ZTV7WST_EVT) for vtable for WST_EVT
    defaultpkg.o(.ARM.exidx) refers to defaultpkg.o(CODE_RXF_RUNNING_FAST) for CODE_RXF_RUNNING_FAST
    defaultpkg.o(i._ZN8evToggleD0Ev) refers to defaultpkg.o(i._ZN8evToggleD1Ev) for evToggle::~evToggle()
    defaultpkg.o(i._ZN8evToggleD0Ev) refers to wst_mem.o(.text) for WST_MEM::returnMemory(void*)
    defaultpkg.o(.ARM.exidx) refers to defaultpkg.o(i._ZN8evToggleD0Ev) for i._ZN8evToggleD0Ev
    defaultpkg.o(i._ZN4evOnD0Ev) refers to defaultpkg.o(i._ZN4evOnD1Ev) for evOn::~evOn()
    defaultpkg.o(i._ZN4evOnD0Ev) refers to wst_mem.o(.text) for WST_MEM::returnMemory(void*)
    defaultpkg.o(.ARM.exidx) refers to defaultpkg.o(i._ZN4evOnD0Ev) for i._ZN4evOnD0Ev
    defaultpkg.o(i._ZN5evOffD0Ev) refers to defaultpkg.o(i._ZN5evOffD1Ev) for evOff::~evOff()
    defaultpkg.o(i._ZN5evOffD0Ev) refers to wst_mem.o(.text) for WST_MEM::returnMemory(void*)
    defaultpkg.o(.ARM.exidx) refers to defaultpkg.o(i._ZN5evOffD0Ev) for i._ZN5evOffD0Ev
    defaultpkg.o(i._ZN14evReceivedDataD0Ev) refers to defaultpkg.o(i._ZN14evReceivedDataD1Ev) for evReceivedData::~evReceivedData()
    defaultpkg.o(i._ZN14evReceivedDataD0Ev) refers to wst_mem.o(.text) for WST_MEM::returnMemory(void*)
    defaultpkg.o(.ARM.exidx) refers to defaultpkg.o(i._ZN14evReceivedDataD0Ev) for i._ZN14evReceivedDataD0Ev
    defaultpkg.o(i._ZN21evNewJoystickPositionD0Ev) refers to defaultpkg.o(i._ZN21evNewJoystickPositionD1Ev) for evNewJoystickPosition::~evNewJoystickPosition()
    defaultpkg.o(i._ZN21evNewJoystickPositionD0Ev) refers to wst_mem.o(.text) for WST_MEM::returnMemory(void*)
    defaultpkg.o(.ARM.exidx) refers to defaultpkg.o(i._ZN21evNewJoystickPositionD0Ev) for i._ZN21evNewJoystickPositionD0Ev
    defaultpkg.o(i._ZN7evBlinkD0Ev) refers to defaultpkg.o(i._ZN7evBlinkD1Ev) for evBlink::~evBlink()
    defaultpkg.o(i._ZN7evBlinkD0Ev) refers to wst_mem.o(.text) for WST_MEM::returnMemory(void*)
    defaultpkg.o(.ARM.exidx) refers to defaultpkg.o(i._ZN7evBlinkD0Ev) for i._ZN7evBlinkD0Ev
    defaultpkg.o(.constdata__ZTV7WST_EVT) refers to defaultpkg.o(.constdata__ZTI7WST_EVT) for typeinfo for WST_EVT
    defaultpkg.o(.constdata__ZTV7WST_EVT) refers to defaultpkg.o(CODE_RXF_RUNNING_FAST) for WST_EVT::~WST_EVT()
    defaultpkg.o(.constdata__ZTV7WST_EVT) refers to defaultpkg.o(CODE_RXF_RUNNING_FAST) for WST_EVT::~WST_EVT__deallocating()
    defaultpkg.o(.constdata__ZTI8evToggle) refers to lib_rtti_impl.o(.constdata__ZTVN10__cxxabiv120__si_class_type_infoE) for vtable for __cxxabiv1::__si_class_type_info
    defaultpkg.o(.constdata__ZTI8evToggle) refers to defaultpkg.o(.constdata__ZTS8evToggle) for typeinfo name for evToggle
    defaultpkg.o(.constdata__ZTI8evToggle) refers to defaultpkg.o(.constdata__ZTI7WST_EVT) for typeinfo for WST_EVT
    defaultpkg.o(.constdata__ZTI4evOn) refers to lib_rtti_impl.o(.constdata__ZTVN10__cxxabiv120__si_class_type_infoE) for vtable for __cxxabiv1::__si_class_type_info
    defaultpkg.o(.constdata__ZTI4evOn) refers to defaultpkg.o(.constdata__ZTS4evOn) for typeinfo name for evOn
    defaultpkg.o(.constdata__ZTI4evOn) refers to defaultpkg.o(.constdata__ZTI7WST_EVT) for typeinfo for WST_EVT
    defaultpkg.o(.constdata__ZTI5evOff) refers to lib_rtti_impl.o(.constdata__ZTVN10__cxxabiv120__si_class_type_infoE) for vtable for __cxxabiv1::__si_class_type_info
    defaultpkg.o(.constdata__ZTI5evOff) refers to defaultpkg.o(.constdata__ZTS5evOff) for typeinfo name for evOff
    defaultpkg.o(.constdata__ZTI5evOff) refers to defaultpkg.o(.constdata__ZTI7WST_EVT) for typeinfo for WST_EVT
    defaultpkg.o(.constdata__ZTI14evReceivedData) refers to lib_rtti_impl.o(.constdata__ZTVN10__cxxabiv120__si_class_type_infoE) for vtable for __cxxabiv1::__si_class_type_info
    defaultpkg.o(.constdata__ZTI14evReceivedData) refers to defaultpkg.o(.constdata__ZTS14evReceivedData) for typeinfo name for evReceivedData
    defaultpkg.o(.constdata__ZTI14evReceivedData) refers to defaultpkg.o(.constdata__ZTI7WST_EVT) for typeinfo for WST_EVT
    defaultpkg.o(.constdata__ZTI21evNewJoystickPosition) refers to lib_rtti_impl.o(.constdata__ZTVN10__cxxabiv120__si_class_type_infoE) for vtable for __cxxabiv1::__si_class_type_info
    defaultpkg.o(.constdata__ZTI21evNewJoystickPosition) refers to defaultpkg.o(.constdata__ZTS21evNewJoystickPosition) for typeinfo name for evNewJoystickPosition
    defaultpkg.o(.constdata__ZTI21evNewJoystickPosition) refers to defaultpkg.o(.constdata__ZTI7WST_EVT) for typeinfo for WST_EVT
    defaultpkg.o(.constdata__ZTI7evBlink) refers to lib_rtti_impl.o(.constdata__ZTVN10__cxxabiv120__si_class_type_infoE) for vtable for __cxxabiv1::__si_class_type_info
    defaultpkg.o(.constdata__ZTI7evBlink) refers to defaultpkg.o(.constdata__ZTS7evBlink) for typeinfo name for evBlink
    defaultpkg.o(.constdata__ZTI7evBlink) refers to defaultpkg.o(.constdata__ZTI7WST_EVT) for typeinfo for WST_EVT
    defaultpkg.o(.constdata__ZTI7WST_EVT) refers to lib_rtti_impl.o(.constdata__ZTVN10__cxxabiv117__class_type_infoE) for vtable for __cxxabiv1::__class_type_info
    defaultpkg.o(.constdata__ZTI7WST_EVT) refers to defaultpkg.o(.constdata__ZTS7WST_EVT) for typeinfo name for WST_EVT
    defaultpkg.o(.ARM.exidx) refers to defaultpkg.o(CODE_RXF_RUNNING_FAST) for CODE_RXF_RUNNING_FAST
    defaultpkg.o(CODE_RXF_RUNNING_FAST) refers to wst_mem.o(.text) for WST_MEM::returnMemory(void*)
    defaultpkg.o(.ARM.exidx) refers to defaultpkg.o(CODE_RXF_RUNNING_FAST) for CODE_RXF_RUNNING_FAST
    display.o(.constdata__ZTV7Display) refers to display.o(.constdata__ZTI7Display) for typeinfo for Display
    display.o(.constdata__ZTV7Display) refers to display.o(.text) for Display::~Display()
    display.o(.constdata__ZTV7Display) refers to wst_fsm.o(.text) for WST_FSM::cancelTimeout(const WST_TMR*)
    display.o(.constdata__ZTI7Display) refers to lib_rtti_impl.o(.constdata__ZTVN10__cxxabiv120__si_class_type_infoE) for vtable for __cxxabiv1::__si_class_type_info
    display.o(.constdata__ZTI7Display) refers to display.o(.constdata__ZTS7Display) for typeinfo name for Display
    display.o(.constdata__ZTI7Display) refers to wst_fsm.o(.constdata__ZTI7WST_FSM) for typeinfo for WST_FSM
    joystick.o(.constdata__ZTV8Joystick) refers to joystick.o(.constdata__ZTI8Joystick) for typeinfo for Joystick
    joystick.o(.constdata__ZTV8Joystick) refers to joystick.o(.text) for Joystick::~Joystick()
    joystick.o(.constdata__ZTV8Joystick) refers to wst_fsm.o(.text) for WST_FSM::send(WST_EVT*)
    joystick.o(.constdata__ZTI8Joystick) refers to lib_rtti_impl.o(.constdata__ZTVN10__cxxabiv121__vmi_class_type_infoE) for vtable for __cxxabiv1::__vmi_class_type_info
    joystick.o(.constdata__ZTI8Joystick) refers to joystick.o(.constdata__ZTS8Joystick) for typeinfo name for Joystick
    joystick.o(.constdata__ZTI8Joystick) refers to wst_tsk.o(.constdata__ZTI7WST_TSK) for typeinfo for WST_TSK
    joystick.o(.constdata__ZTI8Joystick) refers to wst_fsm.o(.constdata__ZTI7WST_FSM) for typeinfo for WST_FSM
    led.o(.constdata__ZTV3Led) refers to led.o(.constdata__ZTI3Led) for typeinfo for Led
    led.o(.constdata__ZTV3Led) refers to led.o(.text) for Led::~Led()
    led.o(.constdata__ZTV3Led) refers to wst_fsm.o(.text) for WST_FSM::send(WST_EVT*)
    led.o(.constdata__ZTI3Led) refers to lib_rtti_impl.o(.constdata__ZTVN10__cxxabiv120__si_class_type_infoE) for vtable for __cxxabiv1::__si_class_type_info
    led.o(.constdata__ZTI3Led) refers to led.o(.constdata__ZTS3Led) for typeinfo name for Led
    led.o(.constdata__ZTI3Led) refers to wst_fsm.o(.constdata__ZTI7WST_FSM) for typeinfo for WST_FSM
    ledbar.o(.constdata__ZTV6LedBar) refers to ledbar.o(.constdata__ZTI6LedBar) for typeinfo for LedBar
    ledbar.o(.constdata__ZTV6LedBar) refers to ledbar.o(.text) for LedBar::~LedBar()
    ledbar.o(.constdata__ZTV6LedBar) refers to wst_fsm.o(.text) for WST_FSM::cancelTimeout(const WST_TMR*)
    ledbar.o(.constdata__ZTI6LedBar) refers to lib_rtti_impl.o(.constdata__ZTVN10__cxxabiv120__si_class_type_infoE) for vtable for __cxxabiv1::__si_class_type_info
    ledbar.o(.constdata__ZTI6LedBar) refers to ledbar.o(.constdata__ZTS6LedBar) for typeinfo name for LedBar
    ledbar.o(.constdata__ZTI6LedBar) refers to wst_fsm.o(.constdata__ZTI7WST_FSM) for typeinfo for WST_FSM
    runningindicatorled.o(.constdata__ZTV19RunningIndicatorLed) refers to runningindicatorled.o(.constdata__ZTI19RunningIndicatorLed) for typeinfo for RunningIndicatorLed
    runningindicatorled.o(.constdata__ZTV19RunningIndicatorLed) refers to runningindicatorled.o(.text) for RunningIndicatorLed::~RunningIndicatorLed()
    runningindicatorled.o(.constdata__ZTV19RunningIndicatorLed) refers to wst_fsm.o(.text) for WST_FSM::send(WST_EVT*)
    runningindicatorled.o(.constdata__ZTI19RunningIndicatorLed) refers to lib_rtti_impl.o(.constdata__ZTVN10__cxxabiv121__vmi_class_type_infoE) for vtable for __cxxabiv1::__vmi_class_type_info
    runningindicatorled.o(.constdata__ZTI19RunningIndicatorLed) refers to runningindicatorled.o(.constdata__ZTS19RunningIndicatorLed) for typeinfo name for RunningIndicatorLed
    runningindicatorled.o(.constdata__ZTI19RunningIndicatorLed) refers to wst_tsk.o(.constdata__ZTI7WST_TSK) for typeinfo for WST_TSK
    runningindicatorled.o(.constdata__ZTI19RunningIndicatorLed) refers to wst_fsm.o(.constdata__ZTI7WST_FSM) for typeinfo for WST_FSM
    testbuilder.o(.constdata__ZTV11TestBuilder) refers to testbuilder.o(.constdata__ZTI11TestBuilder) for typeinfo for TestBuilder
    testbuilder.o(.constdata__ZTV11TestBuilder) refers to testbuilder.o(.text) for TestBuilder::~TestBuilder()
    testbuilder.o(.constdata__ZTV11TestBuilder) refers to wst_fsm.o(.text) for WST_FSM::rootState_entDef()
    testbuilder.o(.constdata__ZTI11TestBuilder) refers to lib_rtti_impl.o(.constdata__ZTVN10__cxxabiv120__si_class_type_infoE) for vtable for __cxxabiv1::__si_class_type_info
    testbuilder.o(.constdata__ZTI11TestBuilder) refers to testbuilder.o(.constdata__ZTS11TestBuilder) for typeinfo name for TestBuilder
    testbuilder.o(.constdata__ZTI11TestBuilder) refers to wst_fsm.o(.constdata__ZTI7WST_FSM) for typeinfo for WST_FSM
    uartcontroller.o(.constdata__ZTV14UartController) refers to uartcontroller.o(.constdata__ZTI14UartController) for typeinfo for UartController
    uartcontroller.o(.constdata__ZTV14UartController) refers to uartcontroller.o(.text) for UartController::~UartController()
    uartcontroller.o(.constdata__ZTI14UartController) refers to lib_rtti_impl.o(.constdata__ZTVN10__cxxabiv117__class_type_infoE) for vtable for __cxxabiv1::__class_type_info
    uartcontroller.o(.constdata__ZTI14UartController) refers to uartcontroller.o(.constdata__ZTS14UartController) for typeinfo name for UartController
    wst_fsm.o(.constdata__ZTV7WST_FSM) refers to wst_fsm.o(.constdata__ZTI7WST_FSM) for typeinfo for WST_FSM
    wst_fsm.o(.constdata__ZTV7WST_FSM) refers to wst_fsm.o(.text) for WST_FSM::~WST_FSM()
    wst_fsm.o(.constdata__ZTI7WST_FSM) refers to lib_rtti_impl.o(.constdata__ZTVN10__cxxabiv117__class_type_infoE) for vtable for __cxxabiv1::__class_type_info
    wst_fsm.o(.constdata__ZTI7WST_FSM) refers to wst_fsm.o(.constdata__ZTS7WST_FSM) for typeinfo name for WST_FSM
    wst_prt_multi.o(.constdata__ZTV16WST_InBoundMulti) refers to wst_prt_multi.o(.constdata__ZTI16WST_InBoundMulti) for typeinfo for WST_InBoundMulti
    wst_prt_multi.o(.constdata__ZTV16WST_InBoundMulti) refers to wst_prt_multi.o(.text) for WST_InBoundMulti::~WST_InBoundMulti()
    wst_prt_multi.o(.constdata__ZTV17WST_OutBoundMulti) refers to wst_prt_multi.o(.constdata__ZTI17WST_OutBoundMulti) for typeinfo for WST_OutBoundMulti
    wst_prt_multi.o(.constdata__ZTV17WST_OutBoundMulti) refers to wst_prt_multi.o(.text) for WST_OutBoundMulti::~WST_OutBoundMulti()
    wst_prt_multi.o(.constdata__ZTV13WST_PRT_MULTI) refers to wst_prt_multi.o(.constdata__ZTI13WST_PRT_MULTI) for typeinfo for WST_PRT_MULTI
    wst_prt_multi.o(.constdata__ZTV13WST_PRT_MULTI) refers to wst_prt_multi.o(.text) for WST_PRT_MULTI::~WST_PRT_MULTI()
    wst_prt_multi.o(.constdata__ZTI17WST_OutBoundMulti) refers to lib_rtti_impl.o(.constdata__ZTVN10__cxxabiv117__class_type_infoE) for vtable for __cxxabiv1::__class_type_info
    wst_prt_multi.o(.constdata__ZTI17WST_OutBoundMulti) refers to wst_prt_multi.o(.constdata__ZTS17WST_OutBoundMulti) for typeinfo name for WST_OutBoundMulti
    wst_prt_multi.o(.constdata__ZTI16WST_InBoundMulti) refers to lib_rtti_impl.o(.constdata__ZTVN10__cxxabiv117__class_type_infoE) for vtable for __cxxabiv1::__class_type_info
    wst_prt_multi.o(.constdata__ZTI16WST_InBoundMulti) refers to wst_prt_multi.o(.constdata__ZTS16WST_InBoundMulti) for typeinfo name for WST_InBoundMulti
    wst_prt_multi.o(.constdata__ZTI13WST_PRT_MULTI) refers to lib_rtti_impl.o(.constdata__ZTVN10__cxxabiv117__class_type_infoE) for vtable for __cxxabiv1::__class_type_info
    wst_prt_multi.o(.constdata__ZTI13WST_PRT_MULTI) refers to wst_prt_multi.o(.constdata__ZTS13WST_PRT_MULTI) for typeinfo name for WST_PRT_MULTI
    wst_tmm.o(.constdata__ZTV7WST_TMR) refers to wst_tmm.o(.constdata__ZTI7WST_TMR) for typeinfo for WST_TMR
    wst_tmm.o(.constdata__ZTV7WST_TMR) refers to wst_tmm.o(i._ZN7WST_TMRD1Ev) for WST_TMR::~WST_TMR()
    wst_tmm.o(.constdata__ZTV7WST_TMR) refers to wst_tmm.o(i._ZN7WST_TMRD0Ev) for WST_TMR::~WST_TMR__deallocating()
    wst_tmm.o(.constdata__ZTI7WST_TMR) refers to lib_rtti_impl.o(.constdata__ZTVN10__cxxabiv120__si_class_type_infoE) for vtable for __cxxabiv1::__si_class_type_info
    wst_tmm.o(.constdata__ZTI7WST_TMR) refers to wst_tmm.o(.constdata__ZTS7WST_TMR) for typeinfo name for WST_TMR
    wst_tmm.o(.constdata__ZTI7WST_TMR) refers to defaultpkg.o(.constdata__ZTI7WST_EVT) for typeinfo for WST_EVT
    wst_tmm.o(.ARM.exidx) refers to wst_tmm.o(i._ZN7WST_TMRD1Ev) for i._ZN7WST_TMRD1Ev
    wst_tmm.o(i._ZN7WST_TMRD0Ev) refers to wst_tmm.o(i._ZN7WST_TMRD1Ev) for WST_TMR::~WST_TMR()
    wst_tmm.o(i._ZN7WST_TMRD0Ev) refers to wst_tmr.o(.text) for WST_TMR::operator delete (void*)
    wst_tmm.o(.ARM.exidx) refers to wst_tmm.o(i._ZN7WST_TMRD0Ev) for i._ZN7WST_TMRD0Ev
    wst_tmr.o(i._ZN7WST_TMRC1Ev) refers to defaultpkg.o(.constdata__ZTV7WST_EVT) for vtable for WST_EVT
    wst_tmr.o(i._ZN7WST_TMRC1Ev) refers to wst_tmm.o(.constdata__ZTV7WST_TMR) for vtable for WST_TMR
    wst_tmr.o(.ARM.exidx) refers to wst_tmr.o(i._ZN7WST_TMRC1Ev) for i._ZN7WST_TMRC1Ev
    wst_tsk.o(.constdata__ZTV7WST_TSK) refers to wst_tsk.o(.constdata__ZTI7WST_TSK) for typeinfo for WST_TSK
    wst_tsk.o(.constdata__ZTV7WST_TSK) refers to wst_tsk.o(.text) for WST_TSK::~WST_TSK()
    wst_tsk.o(.constdata__ZTI7WST_TSK) refers to lib_rtti_impl.o(.constdata__ZTVN10__cxxabiv117__class_type_infoE) for vtable for __cxxabiv1::__class_type_info
    wst_tsk.o(.constdata__ZTI7WST_TSK) refers to wst_tsk.o(.constdata__ZTS7WST_TSK) for typeinfo name for WST_TSK
    lib_rtti_impl.o(.constdata__ZTVN10__cxxabiv123__fundamental_type_infoE) refers to lib_rtti_impl.o(.constdata__ZTIN10__cxxabiv123__fundamental_type_infoE) for typeinfo for __cxxabiv1::__fundamental_type_info
    lib_rtti_impl.o(.constdata__ZTVN10__cxxabiv123__fundamental_type_infoE) refers to lib_rtti_impl.o(i._ZN10__cxxabiv123__fundamental_type_infoD1Ev) for __cxxabiv1::__fundamental_type_info::~__fundamental_type_info()
    lib_rtti_impl.o(.constdata__ZTVN10__cxxabiv123__fundamental_type_infoE) refers to lib_rtti_impl.o(i._ZN10__cxxabiv123__fundamental_type_infoD0Ev) for __cxxabiv1::__fundamental_type_info::~__fundamental_type_info__deallocating()
    lib_rtti_impl.o(.constdata__ZTVN10__cxxabiv117__array_type_infoE) refers to lib_rtti_impl.o(.constdata__ZTIN10__cxxabiv117__array_type_infoE) for typeinfo for __cxxabiv1::__array_type_info
    lib_rtti_impl.o(.constdata__ZTVN10__cxxabiv117__array_type_infoE) refers to lib_rtti_impl.o(i._ZN10__cxxabiv117__array_type_infoD1Ev) for __cxxabiv1::__array_type_info::~__array_type_info()
    lib_rtti_impl.o(.constdata__ZTVN10__cxxabiv117__array_type_infoE) refers to lib_rtti_impl.o(i._ZN10__cxxabiv117__array_type_infoD0Ev) for __cxxabiv1::__array_type_info::~__array_type_info__deallocating()
    lib_rtti_impl.o(.constdata__ZTVN10__cxxabiv120__function_type_infoE) refers to lib_rtti_impl.o(.constdata__ZTIN10__cxxabiv120__function_type_infoE) for typeinfo for __cxxabiv1::__function_type_info
    lib_rtti_impl.o(.constdata__ZTVN10__cxxabiv120__function_type_infoE) refers to lib_rtti_impl.o(i._ZN10__cxxabiv120__function_type_infoD1Ev) for __cxxabiv1::__function_type_info::~__function_type_info()
    lib_rtti_impl.o(.constdata__ZTVN10__cxxabiv120__function_type_infoE) refers to lib_rtti_impl.o(i._ZN10__cxxabiv120__function_type_infoD0Ev) for __cxxabiv1::__function_type_info::~__function_type_info__deallocating()
    lib_rtti_impl.o(.constdata__ZTVN10__cxxabiv116__enum_type_infoE) refers to lib_rtti_impl.o(.constdata__ZTIN10__cxxabiv116__enum_type_infoE) for typeinfo for __cxxabiv1::__enum_type_info
    lib_rtti_impl.o(.constdata__ZTVN10__cxxabiv116__enum_type_infoE) refers to lib_rtti_impl.o(i._ZN10__cxxabiv116__enum_type_infoD1Ev) for __cxxabiv1::__enum_type_info::~__enum_type_info()
    lib_rtti_impl.o(.constdata__ZTVN10__cxxabiv116__enum_type_infoE) refers to lib_rtti_impl.o(i._ZN10__cxxabiv116__enum_type_infoD0Ev) for __cxxabiv1::__enum_type_info::~__enum_type_info__deallocating()
    lib_rtti_impl.o(.constdata__ZTVN10__cxxabiv117__class_type_infoE) refers to lib_rtti_impl.o(.constdata__ZTIN10__cxxabiv117__class_type_infoE) for typeinfo for __cxxabiv1::__class_type_info
    lib_rtti_impl.o(.constdata__ZTVN10__cxxabiv117__class_type_infoE) refers to lib_rtti_impl.o(i._ZN10__cxxabiv117__class_type_infoD1Ev) for __cxxabiv1::__class_type_info::~__class_type_info()
    lib_rtti_impl.o(.constdata__ZTVN10__cxxabiv117__class_type_infoE) refers to lib_rtti_impl.o(i._ZN10__cxxabiv117__class_type_infoD0Ev) for __cxxabiv1::__class_type_info::~__class_type_info__deallocating()
    lib_rtti_impl.o(.constdata__ZTVN10__cxxabiv120__si_class_type_infoE) refers to lib_rtti_impl.o(.constdata__ZTIN10__cxxabiv120__si_class_type_infoE) for typeinfo for __cxxabiv1::__si_class_type_info
    lib_rtti_impl.o(.constdata__ZTVN10__cxxabiv120__si_class_type_infoE) refers to lib_rtti_impl.o(i._ZN10__cxxabiv120__si_class_type_infoD1Ev) for __cxxabiv1::__si_class_type_info::~__si_class_type_info()
    lib_rtti_impl.o(.constdata__ZTVN10__cxxabiv120__si_class_type_infoE) refers to lib_rtti_impl.o(i._ZN10__cxxabiv120__si_class_type_infoD0Ev) for __cxxabiv1::__si_class_type_info::~__si_class_type_info__deallocating()
    lib_rtti_impl.o(.constdata__ZTVN10__cxxabiv121__vmi_class_type_infoE) refers to lib_rtti_impl.o(.constdata__ZTIN10__cxxabiv121__vmi_class_type_infoE) for typeinfo for __cxxabiv1::__vmi_class_type_info
    lib_rtti_impl.o(.constdata__ZTVN10__cxxabiv121__vmi_class_type_infoE) refers to lib_rtti_impl.o(i._ZN10__cxxabiv121__vmi_class_type_infoD1Ev) for __cxxabiv1::__vmi_class_type_info::~__vmi_class_type_info()
    lib_rtti_impl.o(.constdata__ZTVN10__cxxabiv121__vmi_class_type_infoE) refers to lib_rtti_impl.o(i._ZN10__cxxabiv121__vmi_class_type_infoD0Ev) for __cxxabiv1::__vmi_class_type_info::~__vmi_class_type_info__deallocating()
    lib_rtti_impl.o(.constdata__ZTVN10__cxxabiv117__pbase_type_infoE) refers to lib_rtti_impl.o(.constdata__ZTIN10__cxxabiv117__pbase_type_infoE) for typeinfo for __cxxabiv1::__pbase_type_info
    lib_rtti_impl.o(.constdata__ZTVN10__cxxabiv117__pbase_type_infoE) refers to lib_rtti_impl.o(i._ZN10__cxxabiv117__pbase_type_infoD1Ev) for __cxxabiv1::__pbase_type_info::~__pbase_type_info()
    lib_rtti_impl.o(.constdata__ZTVN10__cxxabiv117__pbase_type_infoE) refers to lib_rtti_impl.o(i._ZN10__cxxabiv117__pbase_type_infoD0Ev) for __cxxabiv1::__pbase_type_info::~__pbase_type_info__deallocating()
    lib_rtti_impl.o(.constdata__ZTVN10__cxxabiv119__pointer_type_infoE) refers to lib_rtti_impl.o(.constdata__ZTIN10__cxxabiv119__pointer_type_infoE) for typeinfo for __cxxabiv1::__pointer_type_info
    lib_rtti_impl.o(.constdata__ZTVN10__cxxabiv119__pointer_type_infoE) refers to lib_rtti_impl.o(i._ZN10__cxxabiv119__pointer_type_infoD1Ev) for __cxxabiv1::__pointer_type_info::~__pointer_type_info()
    lib_rtti_impl.o(.constdata__ZTVN10__cxxabiv119__pointer_type_infoE) refers to lib_rtti_impl.o(i._ZN10__cxxabiv119__pointer_type_infoD0Ev) for __cxxabiv1::__pointer_type_info::~__pointer_type_info__deallocating()
    lib_rtti_impl.o(.constdata__ZTVN10__cxxabiv129__pointer_to_member_type_infoE) refers to lib_rtti_impl.o(.constdata__ZTIN10__cxxabiv129__pointer_to_member_type_infoE) for typeinfo for __cxxabiv1::__pointer_to_member_type_info
    lib_rtti_impl.o(.constdata__ZTVN10__cxxabiv129__pointer_to_member_type_infoE) refers to lib_rtti_impl.o(i._ZN10__cxxabiv129__pointer_to_member_type_infoD1Ev) for __cxxabiv1::__pointer_to_member_type_info::~__pointer_to_member_type_info()
    lib_rtti_impl.o(.constdata__ZTVN10__cxxabiv129__pointer_to_member_type_infoE) refers to lib_rtti_impl.o(i._ZN10__cxxabiv129__pointer_to_member_type_infoD0Ev) for __cxxabiv1::__pointer_to_member_type_info::~__pointer_to_member_type_info__deallocating()
    lib_rtti_impl.o(.ARM.exidx) refers to lib_rtti_impl.o(i._ZNSt9type_infodlEPv) for i._ZNSt9type_infodlEPv
    lib_rtti_impl.o(.constdata__ZTIN10__cxxabiv123__fundamental_type_infoE) refers to lib_rtti_impl.o(.constdata__ZTVN10__cxxabiv120__si_class_type_infoE) for vtable for __cxxabiv1::__si_class_type_info
    lib_rtti_impl.o(.constdata__ZTIN10__cxxabiv123__fundamental_type_infoE) refers to lib_rtti_impl.o(.constdata__ZTSN10__cxxabiv123__fundamental_type_infoE) for typeinfo name for __cxxabiv1::__fundamental_type_info
    lib_rtti_impl.o(.constdata__ZTIN10__cxxabiv123__fundamental_type_infoE) refers to type_info_dtor.o(.constdata__ZTISt9type_info) for typeinfo for std::type_info
    lib_rtti_impl.o(.constdata__ZTIN10__cxxabiv117__array_type_infoE) refers to lib_rtti_impl.o(.constdata__ZTVN10__cxxabiv120__si_class_type_infoE) for vtable for __cxxabiv1::__si_class_type_info
    lib_rtti_impl.o(.constdata__ZTIN10__cxxabiv117__array_type_infoE) refers to lib_rtti_impl.o(.constdata__ZTSN10__cxxabiv117__array_type_infoE) for typeinfo name for __cxxabiv1::__array_type_info
    lib_rtti_impl.o(.constdata__ZTIN10__cxxabiv117__array_type_infoE) refers to type_info_dtor.o(.constdata__ZTISt9type_info) for typeinfo for std::type_info
    lib_rtti_impl.o(.constdata__ZTIN10__cxxabiv120__function_type_infoE) refers to lib_rtti_impl.o(.constdata__ZTVN10__cxxabiv120__si_class_type_infoE) for vtable for __cxxabiv1::__si_class_type_info
    lib_rtti_impl.o(.constdata__ZTIN10__cxxabiv120__function_type_infoE) refers to lib_rtti_impl.o(.constdata__ZTSN10__cxxabiv120__function_type_infoE) for typeinfo name for __cxxabiv1::__function_type_info
    lib_rtti_impl.o(.constdata__ZTIN10__cxxabiv120__function_type_infoE) refers to type_info_dtor.o(.constdata__ZTISt9type_info) for typeinfo for std::type_info
    lib_rtti_impl.o(.constdata__ZTIN10__cxxabiv116__enum_type_infoE) refers to lib_rtti_impl.o(.constdata__ZTVN10__cxxabiv120__si_class_type_infoE) for vtable for __cxxabiv1::__si_class_type_info
    lib_rtti_impl.o(.constdata__ZTIN10__cxxabiv116__enum_type_infoE) refers to lib_rtti_impl.o(.constdata__ZTSN10__cxxabiv116__enum_type_infoE) for typeinfo name for __cxxabiv1::__enum_type_info
    lib_rtti_impl.o(.constdata__ZTIN10__cxxabiv116__enum_type_infoE) refers to type_info_dtor.o(.constdata__ZTISt9type_info) for typeinfo for std::type_info
    lib_rtti_impl.o(.constdata__ZTIN10__cxxabiv117__class_type_infoE) refers to lib_rtti_impl.o(.constdata__ZTVN10__cxxabiv120__si_class_type_infoE) for vtable for __cxxabiv1::__si_class_type_info
    lib_rtti_impl.o(.constdata__ZTIN10__cxxabiv117__class_type_infoE) refers to lib_rtti_impl.o(.constdata__ZTSN10__cxxabiv117__class_type_infoE) for typeinfo name for __cxxabiv1::__class_type_info
    lib_rtti_impl.o(.constdata__ZTIN10__cxxabiv117__class_type_infoE) refers to type_info_dtor.o(.constdata__ZTISt9type_info) for typeinfo for std::type_info
    lib_rtti_impl.o(.constdata__ZTIN10__cxxabiv120__si_class_type_infoE) refers to lib_rtti_impl.o(.constdata__ZTVN10__cxxabiv120__si_class_type_infoE) for vtable for __cxxabiv1::__si_class_type_info
    lib_rtti_impl.o(.constdata__ZTIN10__cxxabiv120__si_class_type_infoE) refers to lib_rtti_impl.o(.constdata__ZTSN10__cxxabiv120__si_class_type_infoE) for typeinfo name for __cxxabiv1::__si_class_type_info
    lib_rtti_impl.o(.constdata__ZTIN10__cxxabiv120__si_class_type_infoE) refers to lib_rtti_impl.o(.constdata__ZTIN10__cxxabiv117__class_type_infoE) for typeinfo for __cxxabiv1::__class_type_info
    lib_rtti_impl.o(.constdata__ZTIN10__cxxabiv121__vmi_class_type_infoE) refers to lib_rtti_impl.o(.constdata__ZTVN10__cxxabiv120__si_class_type_infoE) for vtable for __cxxabiv1::__si_class_type_info
    lib_rtti_impl.o(.constdata__ZTIN10__cxxabiv121__vmi_class_type_infoE) refers to lib_rtti_impl.o(.constdata__ZTSN10__cxxabiv121__vmi_class_type_infoE) for typeinfo name for __cxxabiv1::__vmi_class_type_info
    lib_rtti_impl.o(.constdata__ZTIN10__cxxabiv121__vmi_class_type_infoE) refers to lib_rtti_impl.o(.constdata__ZTIN10__cxxabiv117__class_type_infoE) for typeinfo for __cxxabiv1::__class_type_info
    lib_rtti_impl.o(.constdata__ZTIN10__cxxabiv117__pbase_type_infoE) refers to lib_rtti_impl.o(.constdata__ZTVN10__cxxabiv120__si_class_type_infoE) for vtable for __cxxabiv1::__si_class_type_info
    lib_rtti_impl.o(.constdata__ZTIN10__cxxabiv117__pbase_type_infoE) refers to lib_rtti_impl.o(.constdata__ZTSN10__cxxabiv117__pbase_type_infoE) for typeinfo name for __cxxabiv1::__pbase_type_info
    lib_rtti_impl.o(.constdata__ZTIN10__cxxabiv117__pbase_type_infoE) refers to type_info_dtor.o(.constdata__ZTISt9type_info) for typeinfo for std::type_info
    lib_rtti_impl.o(.constdata__ZTIN10__cxxabiv119__pointer_type_infoE) refers to lib_rtti_impl.o(.constdata__ZTVN10__cxxabiv120__si_class_type_infoE) for vtable for __cxxabiv1::__si_class_type_info
    lib_rtti_impl.o(.constdata__ZTIN10__cxxabiv119__pointer_type_infoE) refers to lib_rtti_impl.o(.constdata__ZTSN10__cxxabiv119__pointer_type_infoE) for typeinfo name for __cxxabiv1::__pointer_type_info
    lib_rtti_impl.o(.constdata__ZTIN10__cxxabiv119__pointer_type_infoE) refers to lib_rtti_impl.o(.constdata__ZTIN10__cxxabiv117__pbase_type_infoE) for typeinfo for __cxxabiv1::__pbase_type_info
    lib_rtti_impl.o(.constdata__ZTIN10__cxxabiv129__pointer_to_member_type_infoE) refers to lib_rtti_impl.o(.constdata__ZTVN10__cxxabiv120__si_class_type_infoE) for vtable for __cxxabiv1::__si_class_type_info
    lib_rtti_impl.o(.constdata__ZTIN10__cxxabiv129__pointer_to_member_type_infoE) refers to lib_rtti_impl.o(.constdata__ZTSN10__cxxabiv129__pointer_to_member_type_infoE) for typeinfo name for __cxxabiv1::__pointer_to_member_type_info
    lib_rtti_impl.o(.constdata__ZTIN10__cxxabiv129__pointer_to_member_type_infoE) refers to lib_rtti_impl.o(.constdata__ZTIN10__cxxabiv117__pbase_type_infoE) for typeinfo for __cxxabiv1::__pbase_type_info
    lib_rtti_impl.o(i.__ARM_common_noexcept_landing) refers to arm_exceptions_callterm.o(.text) for __cxa_call_terminate
    lib_rtti_impl.o(.ARM.exidx) refers to lib_rtti_impl.o(i.__ARM_common_noexcept_landing) for i.__ARM_common_noexcept_landing
    bad_alloc_dtor.o(.constdata__ZTVSt9bad_alloc) refers to bad_alloc_dtor.o(.constdata__ZTISt9bad_alloc) for typeinfo for std::bad_alloc
    bad_alloc_dtor.o(.constdata__ZTVSt9bad_alloc) refers to bad_alloc_dtor.o(i._ZNSt9bad_allocD1Ev) for std::bad_alloc::~bad_alloc()
    bad_alloc_dtor.o(.constdata__ZTVSt9bad_alloc) refers to bad_alloc_dtor.o(i._ZNSt9bad_allocD0Ev) for std::bad_alloc::~bad_alloc__deallocating()
    bad_alloc_dtor.o(.constdata__ZTVSt9bad_alloc) refers to bad_alloc_what.o(i._ZNKSt9bad_alloc4whatEv) for std::bad_alloc::what() const
    bad_alloc_dtor.o(.constdata__ZTISt9bad_alloc) refers to lib_rtti_impl.o(.constdata__ZTVN10__cxxabiv120__si_class_type_infoE) for vtable for __cxxabiv1::__si_class_type_info
    bad_alloc_dtor.o(.constdata__ZTISt9bad_alloc) refers to bad_alloc_dtor.o(.constdata__ZTSSt9bad_alloc) for typeinfo name for std::bad_alloc
    bad_alloc_dtor.o(.constdata__ZTISt9bad_alloc) refers to exception_dtor.o(.constdata__ZTISt9exception) for typeinfo for std::exception
    type_info_dtor.o(.constdata__ZTVSt9type_info) refers to type_info_dtor.o(.constdata__ZTISt9type_info) for typeinfo for std::type_info
    type_info_dtor.o(.constdata__ZTVSt9type_info) refers to type_info_dtor.o(i._ZNSt9type_infoD1Ev) for std::type_info::~type_info()
    type_info_dtor.o(.constdata__ZTVSt9type_info) refers to type_info_dtor.o(i._ZNSt9type_infoD0Ev) for std::type_info::~type_info__deallocating()
    type_info_dtor.o(.constdata__ZTISt9type_info) refers to lib_rtti_impl.o(.constdata__ZTVN10__cxxabiv117__class_type_infoE) for vtable for __cxxabiv1::__class_type_info
    type_info_dtor.o(.constdata__ZTISt9type_info) refers to type_info_dtor.o(.constdata__ZTSSt9type_info) for typeinfo name for std::type_info
    exception_dtor.o(.constdata__ZTVSt9exception) refers to exception_dtor.o(.constdata__ZTISt9exception) for typeinfo for std::exception
    exception_dtor.o(.constdata__ZTVSt9exception) refers to exception_dtor.o(i._ZNSt9exceptionD1Ev) for std::exception::~exception()
    exception_dtor.o(.constdata__ZTVSt9exception) refers to exception_dtor.o(i._ZNSt9exceptionD0Ev) for std::exception::~exception__deallocating()
    exception_dtor.o(.constdata__ZTVSt9exception) refers to exception_what.o(i._ZNKSt9exception4whatEv) for std::exception::what() const
    exception_dtor.o(.constdata__ZTISt9exception) refers to lib_rtti_impl.o(.constdata__ZTVN10__cxxabiv117__class_type_infoE) for vtable for __cxxabiv1::__class_type_info
    exception_dtor.o(.constdata__ZTISt9exception) refers to exception_dtor.o(.constdata__ZTSSt9exception) for typeinfo name for std::exception


==============================================================================

Removing Unused input sections from the image.

    Removing defaultpkg.o(.ARM.exidx), (8 bytes).
    Removing display.o(.ARM.exidx), (8 bytes).
    Removing joystick.o(.rev16_text), (4 bytes).
    Removing joystick.o(.revsh_text), (4 bytes).
    Removing joystick.o(.rrx_text), (6 bytes).
    Removing joystick.o(.ARM.exidx), (8 bytes).
    Removing led.o(.rev16_text), (4 bytes).
    Removing led.o(.revsh_text), (4 bytes).
    Removing led.o(.rrx_text), (6 bytes).
    Removing led.o(.ARM.exidx), (8 bytes).
    Removing ledbar.o(.ARM.exidx), (8 bytes).
    Removing mainmcb1700.o(.ARM.exidx), (8 bytes).
    Removing runningindicatorled.o(.ARM.exidx), (8 bytes).
    Removing testbuilder.o(.ARM.exidx), (8 bytes).
    Removing uartcontroller.o(.rev16_text), (4 bytes).
    Removing uartcontroller.o(.revsh_text), (4 bytes).
    Removing uartcontroller.o(.rrx_text), (6 bytes).
    Removing uartcontroller.o(.ARM.exidx), (8 bytes).
    Removing wstmonitor_sendtypes.o(.ARM.exidx), (8 bytes).
    Removing omstring.o(.text), (1564 bytes).
    Removing omstring.o(.ARM.exidx), (8 bytes).
    Removing omstring.o(.data), (4 bytes).
    Removing rxf_behaviorpkg.o(.ARM.exidx), (8 bytes).
    Removing wst_cfg_highwater.o(.text), (2 bytes).
    Removing wst_cfg_highwater.o(.ARM.exidx), (8 bytes).
    Removing wst_err.o(.ARM.exidx), (8 bytes).
    Removing wst_evt.o(.ARM.exidx), (8 bytes).
    Removing wst_fsm.o(.ARM.exidx), (8 bytes).
    Removing wst_mem.o(.ARM.exidx), (8 bytes).
    Removing wst_mem_block.o(.text), (4 bytes).
    Removing wst_mem_block.o(.ARM.exidx), (8 bytes).
    Removing wst_msq.o(.ARM.exidx), (8 bytes).
    Removing wst_mtx.o(.ARM.exidx), (8 bytes).
    Removing wst_osw.o(.ARM.exidx), (8 bytes).
    Removing wst_prt_multi.o(.text), (312 bytes).
    Removing wst_prt_multi.o(.ARM.exidx), (8 bytes).
    Removing wst_rxf.o(.ARM.exidx), (8 bytes).
    Removing wst_tmm.o(.ARM.exidx), (8 bytes).
    Removing wst_tmr.o(.ARM.exidx), (8 bytes).
    Removing wst_tsk.o(.ARM.exidx), (8 bytes).
    Removing wstmonitor.o(.ARM.exidx), (8 bytes).
    Removing wstmonitorio_keil_cortexm3_itm.o(.ARM.exidx), (8 bytes).
    Removing wstrtos.o(.ARM.exidx), (8 bytes).
    Removing wstrtos.o(.ARM.exidx), (8 bytes).
    Removing wsttarget.o(.rev16_text), (4 bytes).
    Removing wsttarget.o(.revsh_text), (4 bytes).
    Removing wsttarget.o(.rrx_text), (6 bytes).
    Removing wsttarget.o(.ARM.exidx), (8 bytes).
    Removing glcd_mcb1700.o(.rev16_text), (4 bytes).
    Removing glcd_mcb1700.o(.revsh_text), (4 bytes).
    Removing glcd_mcb1700.o(.rrx_text), (6 bytes).
    Removing ssp_lpc17xx.o(.rev16_text), (4 bytes).
    Removing ssp_lpc17xx.o(.revsh_text), (4 bytes).
    Removing ssp_lpc17xx.o(.rrx_text), (6 bytes).
    Removing gpdma_lpc17xx.o(.rev16_text), (4 bytes).
    Removing gpdma_lpc17xx.o(.revsh_text), (4 bytes).
    Removing gpdma_lpc17xx.o(.rrx_text), (6 bytes).
    Removing gpio_lpc17xx.o(.rev16_text), (4 bytes).
    Removing gpio_lpc17xx.o(.revsh_text), (4 bytes).
    Removing gpio_lpc17xx.o(.rrx_text), (6 bytes).
    Removing pin_lpc17xx.o(.rev16_text), (4 bytes).
    Removing pin_lpc17xx.o(.revsh_text), (4 bytes).
    Removing pin_lpc17xx.o(.rrx_text), (6 bytes).
    Removing system_lpc17xx.o(.rev16_text), (4 bytes).
    Removing system_lpc17xx.o(.revsh_text), (4 bytes).
    Removing system_lpc17xx.o(.rrx_text), (6 bytes).
    Removing rt_cmsis.o(.rev16_text), (4 bytes).
    Removing rt_cmsis.o(.revsh_text), (4 bytes).
    Removing rt_cmsis.o(.rrx_text), (6 bytes).
    Removing rt_cmsis.o(i.isrSemaphoreRelease), (40 bytes).
    Removing rt_cmsis.o(i.isrSignalSet), (36 bytes).
    Removing rt_cmsis.o(i.osKernelSysTick), (24 bytes).
    Removing rt_cmsis.o(i.osMailAlloc), (28 bytes).
    Removing rt_cmsis.o(i.osMailCAlloc), (48 bytes).
    Removing rt_cmsis.o(i.osMailCreate), (44 bytes).
    Removing rt_cmsis.o(i.osMailFree), (28 bytes).
    Removing rt_cmsis.o(i.osMailGet), (22 bytes).
    Removing rt_cmsis.o(i.osMailPut), (20 bytes).
    Removing rt_cmsis.o(i.osPoolAlloc), (32 bytes).
    Removing rt_cmsis.o(i.osPoolCAlloc), (52 bytes).
    Removing rt_cmsis.o(i.osPoolCreate), (44 bytes).
    Removing rt_cmsis.o(i.osPoolFree), (32 bytes).
    Removing rt_cmsis.o(i.osSemaphoreCreate), (44 bytes).
    Removing rt_cmsis.o(i.osSemaphoreDelete), (24 bytes).
    Removing rt_cmsis.o(i.osSemaphoreRelease), (24 bytes).
    Removing rt_cmsis.o(i.osSemaphoreWait), (24 bytes).
    Removing rt_cmsis.o(i.osSignalClear), (24 bytes).
    Removing rt_cmsis.o(i.osSignalSet), (24 bytes).
    Removing rt_cmsis.o(i.osSignalWait), (24 bytes).
    Removing rt_cmsis.o(i.osThreadGetPriority), (24 bytes).
    Removing rt_cmsis.o(i.osThreadSetPriority), (24 bytes).
    Removing rt_cmsis.o(i.osThreadYield), (24 bytes).
    Removing rt_cmsis.o(i.osTimerDelete), (24 bytes).
    Removing rt_cmsis.o(i.osTimerStop), (24 bytes).
    Removing rt_cmsis.o(i.osWait), (4 bytes).
    Removing rt_cmsis.o(i.os_resume), (12 bytes).
    Removing rt_cmsis.o(i.os_suspend), (12 bytes).
    Removing rt_cmsis.o(i.rt_clr_box), (24 bytes).
    Removing rt_cmsis.o(i.svcKernelSysTick), (56 bytes).
    Removing rt_cmsis.o(i.svcMailCreate), (66 bytes).
    Removing rt_cmsis.o(i.svcPoolCreate), (40 bytes).
    Removing rt_cmsis.o(i.svcSemaphoreCreate), (36 bytes).
    Removing rt_cmsis.o(i.svcSemaphoreDelete), (26 bytes).
    Removing rt_cmsis.o(i.svcSemaphoreRelease), (40 bytes).
    Removing rt_cmsis.o(i.svcSemaphoreWait), (50 bytes).
    Removing rt_cmsis.o(i.svcSignalClear), (36 bytes).
    Removing rt_cmsis.o(i.svcSignalSet), (36 bytes).
    Removing rt_cmsis.o(i.svcSignalWait), (84 bytes).
    Removing rt_cmsis.o(i.svcThreadGetPriority), (18 bytes).
    Removing rt_cmsis.o(i.svcThreadSetPriority), (46 bytes).
    Removing rt_cmsis.o(i.svcThreadYield), (10 bytes).
    Removing rt_cmsis.o(i.svcTimerDelete), (40 bytes).
    Removing rt_cmsis.o(i.svcTimerStop), (36 bytes).
    Removing rt_cmsis.o(i.sysMailAlloc), (88 bytes).
    Removing rt_cmsis.o(i.sysMailFree), (96 bytes).
    Removing rt_cmsis.o(i.sysPoolAlloc), (10 bytes).
    Removing rt_cmsis.o(i.sysPoolFree), (20 bytes).
    Removing rt_cmsis.o(i.sysUserTimerUpdate), (48 bytes).
    Removing rt_cmsis.o(i.sysUserTimerWakeupTime), (20 bytes).
    Removing rt_task.o(i.rt_tsk_pass), (48 bytes).
    Removing rt_system.o(.emb_text), (0 bytes).
    Removing rt_system.o(i.os_tick_ovf), (16 bytes).
    Removing rt_system.o(i.os_tick_val), (20 bytes).
    Removing rt_system.o(i.rt_resume), (136 bytes).
    Removing rt_system.o(i.rt_suspend), (36 bytes).
    Removing rt_system.o(i.rt_tsk_lock), (80 bytes).
    Removing rt_system.o(i.rt_tsk_unlock), (80 bytes).
    Removing rt_event.o(i.isr_evt_set), (40 bytes).
    Removing rt_event.o(i.rt_evt_clr), (28 bytes).
    Removing rt_event.o(i.rt_evt_get), (12 bytes).
    Removing rt_event.o(i.rt_evt_set), (92 bytes).
    Removing rt_event.o(i.rt_evt_wait), (60 bytes).
    Removing rt_list.o(i.rt_get_same_rdy_prio), (36 bytes).
    Removing rt_semaphore.o(i.isr_sem_send), (16 bytes).
    Removing rt_semaphore.o(i.rt_sem_delete), (92 bytes).
    Removing rt_semaphore.o(i.rt_sem_init), (12 bytes).
    Removing rt_semaphore.o(i.rt_sem_send), (42 bytes).
    Removing rt_semaphore.o(i.rt_sem_wait), (64 bytes).
    Removing rt_time.o(i.rt_itv_set), (24 bytes).
    Removing rt_time.o(i.rt_itv_wait), (40 bytes).
    Removing rt_time.o(i.rt_time_get), (12 bytes).
    Removing rt_membox.o(i._calloc_box), (30 bytes).
    Removing rt_robin.o(i.rt_chk_robin), (72 bytes).
    Removing rt_robin.o(i.rt_init_robin), (24 bytes).
    Removing rt_robin.o(.data), (8 bytes).
    Removing defaultpkg.o(.ARM.exidx), (8 bytes).
    Removing defaultpkg.o(.ARM.exidx), (8 bytes).
    Removing defaultpkg.o(.ARM.exidx), (8 bytes).
    Removing defaultpkg.o(.ARM.exidx), (8 bytes).
    Removing defaultpkg.o(.ARM.exidx), (8 bytes).
    Removing defaultpkg.o(.ARM.exidx), (8 bytes).
    Removing defaultpkg.o(.ARM.exidx), (8 bytes).
    Removing defaultpkg.o(.ARM.exidx), (8 bytes).
    Removing defaultpkg.o(.ARM.exidx), (8 bytes).
    Removing defaultpkg.o(.ARM.exidx), (8 bytes).
    Removing defaultpkg.o(.ARM.exidx), (8 bytes).
    Removing defaultpkg.o(.ARM.exidx), (8 bytes).
    Removing defaultpkg.o(.ARM.exidx), (8 bytes).
    Removing defaultpkg.o(.constdata__ZTI8evToggle), (12 bytes).
    Removing defaultpkg.o(.constdata__ZTI4evOn), (12 bytes).
    Removing defaultpkg.o(.constdata__ZTI5evOff), (12 bytes).
    Removing defaultpkg.o(.constdata__ZTI14evReceivedData), (12 bytes).
    Removing defaultpkg.o(.constdata__ZTI21evNewJoystickPosition), (12 bytes).
    Removing defaultpkg.o(.constdata__ZTI7evBlink), (12 bytes).
    Removing defaultpkg.o(.constdata__ZTI7WST_EVT), (8 bytes).
    Removing defaultpkg.o(.constdata__ZTS8evToggle), (10 bytes).
    Removing defaultpkg.o(.constdata__ZTS4evOn), (6 bytes).
    Removing defaultpkg.o(.constdata__ZTS5evOff), (7 bytes).
    Removing defaultpkg.o(.constdata__ZTS14evReceivedData), (17 bytes).
    Removing defaultpkg.o(.constdata__ZTS21evNewJoystickPosition), (24 bytes).
    Removing defaultpkg.o(.constdata__ZTS7evBlink), (9 bytes).
    Removing defaultpkg.o(.constdata__ZTS7WST_EVT), (9 bytes).
    Removing defaultpkg.o(CODE_RXF_RUNNING_FAST), (2 bytes).
    Removing defaultpkg.o(.ARM.exidx), (8 bytes).
    Removing defaultpkg.o(.ARM.exidx), (8 bytes).
    Removing display.o(.constdata__ZTI7Display), (12 bytes).
    Removing display.o(.constdata__ZTS7Display), (9 bytes).
    Removing joystick.o(.constdata__ZTI8Joystick), (32 bytes).
    Removing joystick.o(.constdata__ZTS8Joystick), (10 bytes).
    Removing led.o(.constdata__ZTI3Led), (12 bytes).
    Removing led.o(.constdata__ZTS3Led), (5 bytes).
    Removing ledbar.o(.constdata__ZTI6LedBar), (12 bytes).
    Removing ledbar.o(.constdata__ZTS6LedBar), (8 bytes).
    Removing runningindicatorled.o(.constdata__ZTI19RunningIndicatorLed), (32 bytes).
    Removing runningindicatorled.o(.constdata__ZTS19RunningIndicatorLed), (22 bytes).
    Removing testbuilder.o(.constdata__ZTI11TestBuilder), (12 bytes).
    Removing testbuilder.o(.constdata__ZTS11TestBuilder), (14 bytes).
    Removing uartcontroller.o(.constdata__ZTI14UartController), (8 bytes).
    Removing uartcontroller.o(.constdata__ZTS14UartController), (17 bytes).
    Removing wst_fsm.o(.constdata__ZTI7WST_FSM), (8 bytes).
    Removing wst_fsm.o(.constdata__ZTS7WST_FSM), (9 bytes).
    Removing wst_prt_multi.o(.constdata__ZTV16WST_InBoundMulti), (16 bytes).
    Removing wst_prt_multi.o(.constdata__ZTV17WST_OutBoundMulti), (16 bytes).
    Removing wst_prt_multi.o(.constdata__ZTV13WST_PRT_MULTI), (16 bytes).
    Removing wst_prt_multi.o(.constdata__ZTI17WST_OutBoundMulti), (8 bytes).
    Removing wst_prt_multi.o(.constdata__ZTI16WST_InBoundMulti), (8 bytes).
    Removing wst_prt_multi.o(.constdata__ZTI13WST_PRT_MULTI), (8 bytes).
    Removing wst_prt_multi.o(.constdata__ZTS17WST_OutBoundMulti), (20 bytes).
    Removing wst_prt_multi.o(.constdata__ZTS16WST_InBoundMulti), (19 bytes).
    Removing wst_prt_multi.o(.constdata__ZTS13WST_PRT_MULTI), (16 bytes).
    Removing wst_tmm.o(.constdata__ZTI7WST_TMR), (12 bytes).
    Removing wst_tmm.o(.constdata__ZTS7WST_TMR), (9 bytes).
    Removing wst_tmm.o(.ARM.exidx), (8 bytes).
    Removing wst_tmm.o(.ARM.exidx), (8 bytes).
    Removing wst_tmr.o(.ARM.exidx), (8 bytes).
    Removing wst_tsk.o(.constdata__ZTI7WST_TSK), (8 bytes).
    Removing wst_tsk.o(.constdata__ZTS7WST_TSK), (9 bytes).

207 unused section(s) (total 5815 bytes) removed from the image.

==============================================================================

Image Symbol Table

    Local Symbols

    Symbol Name                              Value     Ov Type        Size  Object(Section)

    RESET                                    0x00000000   Section      204  startup_lpc17xx.o(RESET)
    ../../../clib/unwind_pr.c                0x00000000   Number         0  unwind_pr0.o ABSOLUTE
    ../../../clib/unwind_pr.c                0x00000000   Number         0  unwind_prcommon.o ABSOLUTE
    ../../../clib/unwinder.c                 0x00000000   Number         0  unwinder.o ABSOLUTE
    ../../../clib/unwinder.c                 0x00000000   Number         0  unwind_activity.o ABSOLUTE
    ../../../clib/unwinder.c                 0x00000000   Number         0  unwind_activity.o ABSOLUTE
    ../../../clib/unwinder.c                 0x00000000   Number         0  unwinder.o ABSOLUTE
    ../../../edgfe/lib_src/arm_exceptions.c  0x00000000   Number         0  arm_exceptions_globs.o ABSOLUTE
    ../../../edgfe/lib_src/arm_exceptions.c  0x00000000   Number         0  arm_exceptions_callterm.o ABSOLUTE
    ../../../edgfe/lib_src/arm_exceptions.c  0x00000000   Number         0  arm_exceptions_mem.o ABSOLUTE
    ../../../edgfe/lib_src/arm_exceptions.c  0x00000000   Number         0  arm_exceptions_terminate.o ABSOLUTE
    ../../../edgfe/lib_src/arm_exceptions.c  0x00000000   Number         0  arm_exceptions_support.o ABSOLUTE
    ../../../edgfe/lib_src/arm_noexceptions.c 0x00000000   Number         0  arm_callunex_noexceptions.o ABSOLUTE
    ../../../edgfe/lib_src/arm_noexceptions.c 0x00000000   Number         0  arm_begincatch_noexceptions.o ABSOLUTE
    ../../../edgfe/lib_src/arm_noexceptions.c 0x00000000   Number         0  arm_newhandler_noexceptions.o ABSOLUTE
    ../../../edgfe/lib_src/array_new.c       0x00000000   Number         0  array_new.o ABSOLUTE
    ../../../edgfe/lib_src/bad_alloc.c       0x00000000   Number         0  bad_alloc_dtor.o ABSOLUTE
    ../../../edgfe/lib_src/bad_alloc.c       0x00000000   Number         0  bad_alloc_what.o ABSOLUTE
    ../../../edgfe/lib_src/delete.c          0x00000000   Number         0  delete.o ABSOLUTE
    ../../../edgfe/lib_src/exception.c       0x00000000   Number         0  exception_dtor.o ABSOLUTE
    ../../../edgfe/lib_src/exception.c       0x00000000   Number         0  exception_what.o ABSOLUTE
    ../../../edgfe/lib_src/guard.c           0x00000000   Number         0  cxa_guard_acquire.o ABSOLUTE
    ../../../edgfe/lib_src/guard.c           0x00000000   Number         0  cxa_guard_release.o ABSOLUTE
    ../../../edgfe/lib_src/new.c             0x00000000   Number         0  new.o ABSOLUTE
    ../../../edgfe/lib_src/typeinfo.c        0x00000000   Number         0  type_info_dtor.o ABSOLUTE
    ../../../edgfe/lib_src/typeinfo.c        0x00000000   Number         0  lib_rtti_impl.o ABSOLUTE
    ../../array_helpers.cpp                  0x00000000   Number         0  aeabi_vec_ctor_nocookie_nodtor.o ABSOLUTE
    ../../array_helpers.cpp                  0x00000000   Number         0  aeabi_vec_dtor_noexceptions.o ABSOLUTE
    ../clib/angel/boardlib.s                 0x00000000   Number         0  boardshut.o ABSOLUTE
    ../clib/angel/boardlib.s                 0x00000000   Number         0  boardinit2.o ABSOLUTE
    ../clib/angel/boardlib.s                 0x00000000   Number         0  boardinit1.o ABSOLUTE
    ../clib/angel/handlers.s                 0x00000000   Number         0  __scatter_zi.o ABSOLUTE
    ../clib/angel/handlers.s                 0x00000000   Number         0  __scatter_copy.o ABSOLUTE
    ../clib/angel/kernel.s                   0x00000000   Number         0  __rtentry.o ABSOLUTE
    ../clib/angel/kernel.s                   0x00000000   Number         0  rtexit2.o ABSOLUTE
    ../clib/angel/kernel.s                   0x00000000   Number         0  rtexit.o ABSOLUTE
    ../clib/angel/kernel.s                   0x00000000   Number         0  __rtentry2.o ABSOLUTE
    ../clib/angel/kernel.s                   0x00000000   Number         0  __rtentry4.o ABSOLUTE
    ../clib/angel/rt.s                       0x00000000   Number         0  rt_eh_globals_addr_twolibspace.o ABSOLUTE
    ../clib/angel/rt.s                       0x00000000   Number         0  rt_eh_globals_addr_intlibspace.o ABSOLUTE
    ../clib/angel/rt.s                       0x00000000   Number         0  rt_eh_globals_addr.o ABSOLUTE
    ../clib/angel/rt.s                       0x00000000   Number         0  rt_raise.o ABSOLUTE
    ../clib/angel/rt.s                       0x00000000   Number         0  rt_new_handler_addr.o ABSOLUTE
    ../clib/angel/rt.s                       0x00000000   Number         0  rt_new_handler_addr_twolibspace.o ABSOLUTE
    ../clib/angel/rt.s                       0x00000000   Number         0  rt_new_handler_addr_intlibspace.o ABSOLUTE
    ../clib/angel/rt.s                       0x00000000   Number         0  rt_locale_twolibspace.o ABSOLUTE
    ../clib/angel/rt.s                       0x00000000   Number         0  rt_locale_intlibspace.o ABSOLUTE
    ../clib/angel/rt.s                       0x00000000   Number         0  rt_locale.o ABSOLUTE
    ../clib/angel/rt.s                       0x00000000   Number         0  rt_heap_descriptor_twolibspace.o ABSOLUTE
    ../clib/angel/rt.s                       0x00000000   Number         0  rt_heap_descriptor_intlibspace.o ABSOLUTE
    ../clib/angel/rt.s                       0x00000000   Number         0  rt_heap_descriptor.o ABSOLUTE
    ../clib/angel/rt.s                       0x00000000   Number         0  rt_ctype_table.o ABSOLUTE
    ../clib/angel/rt.s                       0x00000000   Number         0  aeabi_ldiv0.o ABSOLUTE
    ../clib/angel/rt.s                       0x00000000   Number         0  aeabi_ldiv0_sigfpe.o ABSOLUTE
    ../clib/angel/rt.s                       0x00000000   Number         0  rt_div0.o ABSOLUTE
    ../clib/angel/rt.s                       0x00000000   Number         0  rt_ddtor_pointer_addr.o ABSOLUTE
    ../clib/angel/rt.s                       0x00000000   Number         0  rt_ddtor_pointer_addr_intlibspace.o ABSOLUTE
    ../clib/angel/rt.s                       0x00000000   Number         0  rt_ddtor_pointer_addr_twolibspace.o ABSOLUTE
    ../clib/angel/scatter.s                  0x00000000   Number         0  __scatter.o ABSOLUTE
    ../clib/angel/startup.s                  0x00000000   Number         0  __main.o ABSOLUTE
    ../clib/angel/sys.s                      0x00000000   Number         0  use_no_semi.o ABSOLUTE
    ../clib/angel/sys.s                      0x00000000   Number         0  sys_stackheap_outer.o ABSOLUTE
    ../clib/angel/sys.s                      0x00000000   Number         0  indicate_semi.o ABSOLUTE
    ../clib/angel/sys.s                      0x00000000   Number         0  libspace.o ABSOLUTE
    ../clib/angel/sysapp.c                   0x00000000   Number         0  sys_command.o ABSOLUTE
    ../clib/angel/sysapp.c                   0x00000000   Number         0  sys_exit.o ABSOLUTE
    ../clib/angel/sysapp.c                   0x00000000   Number         0  sys_wrch.o ABSOLUTE
    ../clib/arm_runtime.c                    0x00000000   Number         0  init_aeabi.o ABSOLUTE
    ../clib/arm_runtime.c                    0x00000000   Number         0  init_aeabi.o ABSOLUTE
    ../clib/armsys.c                         0x00000000   Number         0  _get_argv_nomalloc.o ABSOLUTE
    ../clib/armsys.c                         0x00000000   Number         0  argv_veneer.o ABSOLUTE
    ../clib/armsys.c                         0x00000000   Number         0  argv_veneer.o ABSOLUTE
    ../clib/armsys.c                         0x00000000   Number         0  _get_argv.o ABSOLUTE
    ../clib/armsys.c                         0x00000000   Number         0  no_argv.o ABSOLUTE
    ../clib/ctype.c                          0x00000000   Number         0  toupper.o ABSOLUTE
    ../clib/heap1.c                          0x00000000   Number         0  h1_alloc_mt.o ABSOLUTE
    ../clib/heap1.c                          0x00000000   Number         0  h1_free.o ABSOLUTE
    ../clib/heap1.c                          0x00000000   Number         0  h1_alloc.o ABSOLUTE
    ../clib/heap1.c                          0x00000000   Number         0  h1_init.o ABSOLUTE
    ../clib/heap1.c                          0x00000000   Number         0  h1_init_mt.o ABSOLUTE
    ../clib/heap1.c                          0x00000000   Number         0  h1_free_mt.o ABSOLUTE
    ../clib/heap1.c                          0x00000000   Number         0  h1_final_mt.o ABSOLUTE
    ../clib/heap1.c                          0x00000000   Number         0  h1_final.o ABSOLUTE
    ../clib/heap1.c                          0x00000000   Number         0  h1_extend_mt.o ABSOLUTE
    ../clib/heap1.c                          0x00000000   Number         0  h1_extend.o ABSOLUTE
    ../clib/heap2.c                          0x00000000   Number         0  heap2mt.o ABSOLUTE
    ../clib/heap2.c                          0x00000000   Number         0  heap2.o ABSOLUTE
    ../clib/heap2.c                          0x00000000   Number         0  fdtree.o ABSOLUTE
    ../clib/heapalloc.c                      0x00000000   Number         0  free.o ABSOLUTE
    ../clib/heapalloc.c                      0x00000000   Number         0  term_alloc.o ABSOLUTE
    ../clib/heapalloc.c                      0x00000000   Number         0  hguard.o ABSOLUTE
    ../clib/heapalloc.c                      0x00000000   Number         0  hrguard.o ABSOLUTE
    ../clib/heapalloc.c                      0x00000000   Number         0  malloc.o ABSOLUTE
    ../clib/heapalloc.c                      0x00000000   Number         0  init_alloc.o ABSOLUTE
    ../clib/heapalloc.c                      0x00000000   Number         0  heapstubs.o ABSOLUTE
    ../clib/heapalloc.c                      0x00000000   Number         0  maybetermalloc2.o ABSOLUTE
    ../clib/heapalloc.c                      0x00000000   Number         0  maybetermalloc2.o ABSOLUTE
    ../clib/heapalloc.c                      0x00000000   Number         0  maybetermalloc1.o ABSOLUTE
    ../clib/heapalloc.c                      0x00000000   Number         0  maybetermalloc1.o ABSOLUTE
    ../clib/heapaux.c                        0x00000000   Number         0  heapauxa.o ABSOLUTE
    ../clib/heapaux.c                        0x00000000   Number         0  heapauxi.o ABSOLUTE
    ../clib/libinit.s                        0x00000000   Number         0  libshutdown2.o ABSOLUTE
    ../clib/libinit.s                        0x00000000   Number         0  libinit.o ABSOLUTE
    ../clib/libinit.s                        0x00000000   Number         0  libinit2.o ABSOLUTE
    ../clib/libinit.s                        0x00000000   Number         0  libshutdown.o ABSOLUTE
    ../clib/locale.s                         0x00000000   Number         0  lc_ctype_c.o ABSOLUTE
    ../clib/longlong.s                       0x00000000   Number         0  lludivv7m.o ABSOLUTE
    ../clib/memcpset.s                       0x00000000   Number         0  rt_memclr_w.o ABSOLUTE
    ../clib/memcpset.s                       0x00000000   Number         0  strcmpv7m.o ABSOLUTE
    ../clib/memcpset.s                       0x00000000   Number         0  rt_memcpy_w.o ABSOLUTE
    ../clib/memcpset.s                       0x00000000   Number         0  rt_memcpy_v6.o ABSOLUTE
    ../clib/printf.c                         0x00000000   Number         0  _printf_char.o ABSOLUTE
    ../clib/printf.c                         0x00000000   Number         0  __printf_flags_ss_wp.o ABSOLUTE
    ../clib/printf.c                         0x00000000   Number         0  __printf_ss.o ABSOLUTE
    ../clib/printf.c                         0x00000000   Number         0  _sputc.o ABSOLUTE
    ../clib/printf.c                         0x00000000   Number         0  __printf_flags_ss.o ABSOLUTE
    ../clib/printf.c                         0x00000000   Number         0  __printf_flags.o ABSOLUTE
    ../clib/printf.c                         0x00000000   Number         0  _printf_str.o ABSOLUTE
    ../clib/printf.c                         0x00000000   Number         0  __printf_nopercent.o ABSOLUTE
    ../clib/printf.c                         0x00000000   Number         0  _printf_char_common.o ABSOLUTE
    ../clib/printf.c                         0x00000000   Number         0  __printf.o ABSOLUTE
    ../clib/printf.c                         0x00000000   Number         0  noretval__2sprintf.o ABSOLUTE
    ../clib/printf.c                         0x00000000   Number         0  __printf_flags_wp.o ABSOLUTE
    ../clib/printf.c                         0x00000000   Number         0  __printf_ss_wp.o ABSOLUTE
    ../clib/printf.c                         0x00000000   Number         0  __2sprintf.o ABSOLUTE
    ../clib/printf.c                         0x00000000   Number         0  __printf_wp.o ABSOLUTE
    ../clib/printf_percent.s                 0x00000000   Number         0  _printf_percent_end.o ABSOLUTE
    ../clib/printf_percent.s                 0x00000000   Number         0  _printf_s.o ABSOLUTE
    ../clib/printf_percent.s                 0x00000000   Number         0  _printf_percent.o ABSOLUTE
    ../clib/signal.c                         0x00000000   Number         0  defsig_general.o ABSOLUTE
    ../clib/signal.c                         0x00000000   Number         0  __raise.o ABSOLUTE
    ../clib/signal.c                         0x00000000   Number         0  defsig_rtred_inner.o ABSOLUTE
    ../clib/signal.c                         0x00000000   Number         0  defsig_abrt_inner.o ABSOLUTE
    ../clib/signal.c                         0x00000000   Number         0  defsig_rtmem_inner.o ABSOLUTE
    ../clib/signal.c                         0x00000000   Number         0  defsig_fpe_inner.o ABSOLUTE
    ../clib/signal.c                         0x00000000   Number         0  defsig_abrt_formal.o ABSOLUTE
    ../clib/signal.c                         0x00000000   Number         0  defsig_abrt_outer.o ABSOLUTE
    ../clib/signal.c                         0x00000000   Number         0  defsig_exit.o ABSOLUTE
    ../clib/signal.c                         0x00000000   Number         0  defsig_rtmem_outer.o ABSOLUTE
    ../clib/signal.c                         0x00000000   Number         0  defsig_pvfn_inner.o ABSOLUTE
    ../clib/signal.c                         0x00000000   Number         0  defsig_other.o ABSOLUTE
    ../clib/signal.c                         0x00000000   Number         0  defsig_segv_inner.o ABSOLUTE
    ../clib/signal.c                         0x00000000   Number         0  defsig_rtmem_formal.o ABSOLUTE
    ../clib/signal.c                         0x00000000   Number         0  defsig_fpe_formal.o ABSOLUTE
    ../clib/signal.c                         0x00000000   Number         0  defsig_fpe_outer.o ABSOLUTE
    ../clib/signal.c                         0x00000000   Number         0  defsig_cppl_inner.o ABSOLUTE
    ../clib/signal.c                         0x00000000   Number         0  defsig_stak_inner.o ABSOLUTE
    ../clib/signal.s                         0x00000000   Number         0  defsig.o ABSOLUTE
    ../clib/stdlib.c                         0x00000000   Number         0  exit.o ABSOLUTE
    ../clib/stdlib.c                         0x00000000   Number         0  cxa_finalize.o ABSOLUTE
    ../clib/stdlib.c                         0x00000000   Number         0  bsearchnoex.o ABSOLUTE
    ../clib/stdlib.c                         0x00000000   Number         0  abort.o ABSOLUTE
    ../clib/stdlib.c                         0x00000000   Number         0  aeabi_atexit.o ABSOLUTE
    ../clib/stdlib.c                         0x00000000   Number         0  atexit_aeabi.o ABSOLUTE
    ../clib/string.c                         0x00000000   Number         0  strlen.o ABSOLUTE
    ../fplib/fpinit.s                        0x00000000   Number         0  fpinit.o ABSOLUTE
    ..\HAL_CM.c                              0x00000000   Number         0  hal_cm.o ABSOLUTE
    ..\\rt_CMSIS.c                           0x00000000   Number         0  rt_cmsis.o ABSOLUTE
    ..\\rt_System.c                          0x00000000   Number         0  rt_system.o ABSOLUTE
    ..\rt_CMSIS.c                            0x00000000   Number         0  rt_cmsis.o ABSOLUTE
    ..\rt_Event.c                            0x00000000   Number         0  rt_event.o ABSOLUTE
    ..\rt_List.c                             0x00000000   Number         0  rt_list.o ABSOLUTE
    ..\rt_Mailbox.c                          0x00000000   Number         0  rt_mailbox.o ABSOLUTE
    ..\rt_MemBox.c                           0x00000000   Number         0  rt_membox.o ABSOLUTE
    ..\rt_Memory.c                           0x00000000   Number         0  rt_memory.o ABSOLUTE
    ..\rt_Mutex.c                            0x00000000   Number         0  rt_mutex.o ABSOLUTE
    ..\rt_Robin.c                            0x00000000   Number         0  rt_robin.o ABSOLUTE
    ..\rt_Semaphore.c                        0x00000000   Number         0  rt_semaphore.o ABSOLUTE
    ..\rt_System.c                           0x00000000   Number         0  rt_system.o ABSOLUTE
    ..\rt_Task.c                             0x00000000   Number         0  rt_task.o ABSOLUTE
    ..\rt_Time.c                             0x00000000   Number         0  rt_time.o ABSOLUTE
    C:\Keil_v5\ARM\PACK\Keil\LPC1700_DFP\2.3.0\Boards\Keil\MCB1700\Common\GLCD_Fonts.c 0x00000000   Number         0  glcd_fonts.o ABSOLUTE
    C:\Keil_v5\ARM\PACK\Keil\LPC1700_DFP\2.3.0\Boards\Keil\MCB1700\Common\GLCD_MCB1700.c 0x00000000   Number         0  glcd_mcb1700.o ABSOLUTE
    C:\Keil_v5\ARM\PACK\Keil\LPC1700_DFP\2.3.0\RTE_Driver\GPDMA_LPC17xx.c 0x00000000   Number         0  gpdma_lpc17xx.o ABSOLUTE
    C:\Keil_v5\ARM\PACK\Keil\LPC1700_DFP\2.3.0\RTE_Driver\GPIO_LPC17xx.c 0x00000000   Number         0  gpio_lpc17xx.o ABSOLUTE
    C:\Keil_v5\ARM\PACK\Keil\LPC1700_DFP\2.3.0\RTE_Driver\PIN_LPC17xx.c 0x00000000   Number         0  pin_lpc17xx.o ABSOLUTE
    C:\Keil_v5\ARM\PACK\Keil\LPC1700_DFP\2.3.0\RTE_Driver\SSP_LPC17xx.c 0x00000000   Number         0  ssp_lpc17xx.o ABSOLUTE
    C:\\Keil_v5\\ARM\\PACK\\Keil\\LPC1700_DFP\\2.3.0\\Boards\\Keil\\MCB1700\\Common\\GLCD_MCB1700.c 0x00000000   Number         0  glcd_mcb1700.o ABSOLUTE
    C:\\Keil_v5\\ARM\\PACK\\Keil\\LPC1700_DFP\\2.3.0\\RTE_Driver\\GPDMA_LPC17xx.c 0x00000000   Number         0  gpdma_lpc17xx.o ABSOLUTE
    C:\\Keil_v5\\ARM\\PACK\\Keil\\LPC1700_DFP\\2.3.0\\RTE_Driver\\GPIO_LPC17xx.c 0x00000000   Number         0  gpio_lpc17xx.o ABSOLUTE
    C:\\Keil_v5\\ARM\\PACK\\Keil\\LPC1700_DFP\\2.3.0\\RTE_Driver\\PIN_LPC17xx.c 0x00000000   Number         0  pin_lpc17xx.o ABSOLUTE
    C:\\Keil_v5\\ARM\\PACK\\Keil\\LPC1700_DFP\\2.3.0\\RTE_Driver\\SSP_LPC17xx.c 0x00000000   Number         0  ssp_lpc17xx.o ABSOLUTE
    GeneratedModel\DefaultPkg.cpp            0x00000000   Number         0  defaultpkg.o ABSOLUTE
    GeneratedModel\Display.cpp               0x00000000   Number         0  display.o ABSOLUTE
    GeneratedModel\Joystick.cpp              0x00000000   Number         0  joystick.o ABSOLUTE
    GeneratedModel\LED.cpp                   0x00000000   Number         0  led.o ABSOLUTE
    GeneratedModel\LedBar.cpp                0x00000000   Number         0  ledbar.o ABSOLUTE
    GeneratedModel\MainMCB1700.cpp           0x00000000   Number         0  mainmcb1700.o ABSOLUTE
    GeneratedModel\RunningIndicatorLed.cpp   0x00000000   Number         0  runningindicatorled.o ABSOLUTE
    GeneratedModel\TestBuilder.cpp           0x00000000   Number         0  testbuilder.o ABSOLUTE
    GeneratedModel\UartController.cpp        0x00000000   Number         0  uartcontroller.o ABSOLUTE
    GeneratedModel\WSTMonitor_sendTypes.cpp  0x00000000   Number         0  wstmonitor_sendtypes.o ABSOLUTE
    GeneratedModel\\Joystick.cpp             0x00000000   Number         0  joystick.o ABSOLUTE
    GeneratedModel\\LED.cpp                  0x00000000   Number         0  led.o ABSOLUTE
    GeneratedModel\\UartController.cpp       0x00000000   Number         0  uartcontroller.o ABSOLUTE
    HAL_CM3.c                                0x00000000   Number         0  hal_cm3.o ABSOLUTE
    HAL_CM3.c                                0x00000000   Number         0  hal_cm3.o ABSOLUTE
    RTE\CMSIS\RTX_Conf_CM.c                  0x00000000   Number         0  rtx_conf_cm.o ABSOLUTE
    RTE\Device\LPC1768\startup_LPC17xx.s     0x00000000   Number         0  startup_lpc17xx.o ABSOLUTE
    RTE\Device\LPC1768\system_LPC17xx.c      0x00000000   Number         0  system_lpc17xx.o ABSOLUTE
    RTE\\CMSIS\\RTX_Conf_CM.c                0x00000000   Number         0  rtx_conf_cm.o ABSOLUTE
    RTE\\Device\\LPC1768\\system_LPC17xx.c   0x00000000   Number         0  system_lpc17xx.o ABSOLUTE
    RXF\RXF_BehaviorPkg.cpp                  0x00000000   Number         0  rxf_behaviorpkg.o ABSOLUTE
    RXF\WSTForwardDecl.cpp                   0x00000000   Number         0  wstforwarddecl.o ABSOLUTE
    RXF\WSTMonitor.cpp                       0x00000000   Number         0  wstmonitor.o ABSOLUTE
    RXF\WSTMonitorIO_Keil_CortexM3_ITM.cpp   0x00000000   Number         0  wstmonitorio_keil_cortexm3_itm.o ABSOLUTE
    RXF\WSTMonitorIO_Keil_CortexM3_UART.cpp  0x00000000   Number         0  wstmonitorio_keil_cortexm3_uart.o ABSOLUTE
    RXF\WSTRTOS.cpp                          0x00000000   Number         0  wstrtos.o ABSOLUTE
    RXF\WSTTarget.cpp                        0x00000000   Number         0  wsttarget.o ABSOLUTE
    RXF\WST_CFG_Highwater.cpp                0x00000000   Number         0  wst_cfg_highwater.o ABSOLUTE
    RXF\WST_ERR.cpp                          0x00000000   Number         0  wst_err.o ABSOLUTE
    RXF\WST_EVT.cpp                          0x00000000   Number         0  wst_evt.o ABSOLUTE
    RXF\WST_FSM.cpp                          0x00000000   Number         0  wst_fsm.o ABSOLUTE
    RXF\WST_MEM.cpp                          0x00000000   Number         0  wst_mem.o ABSOLUTE
    RXF\WST_MEM_Block.cpp                    0x00000000   Number         0  wst_mem_block.o ABSOLUTE
    RXF\WST_MSQ.cpp                          0x00000000   Number         0  wst_msq.o ABSOLUTE
    RXF\WST_MTX.cpp                          0x00000000   Number         0  wst_mtx.o ABSOLUTE
    RXF\WST_OSW.cpp                          0x00000000   Number         0  wst_osw.o ABSOLUTE
    RXF\WST_PRT_Multi.cpp                    0x00000000   Number         0  wst_prt_multi.o ABSOLUTE
    RXF\WST_RXF.cpp                          0x00000000   Number         0  wst_rxf.o ABSOLUTE
    RXF\WST_TMM.cpp                          0x00000000   Number         0  wst_tmm.o ABSOLUTE
    RXF\WST_TMR.cpp                          0x00000000   Number         0  wst_tmr.o ABSOLUTE
    RXF\WST_TSK.cpp                          0x00000000   Number         0  wst_tsk.o ABSOLUTE
    RXF\\WSTTarget.cpp                       0x00000000   Number         0  wsttarget.o ABSOLUTE
    RXF\oxf\omstring.cpp                     0x00000000   Number         0  omstring.o ABSOLUTE
    SVC_Table.s                              0x00000000   Number         0  svc_table.o ABSOLUTE
    dc.s                                     0x00000000   Number         0  dc.o ABSOLUTE
    !!!main                                  0x000000cc   Section        8  __main.o(!!!main)
    !!!scatter                               0x000000d4   Section       52  __scatter.o(!!!scatter)
    !!handler_copy                           0x00000108   Section       26  __scatter_copy.o(!!handler_copy)
    !!handler_zi                             0x00000124   Section       28  __scatter_zi.o(!!handler_zi)
    .ARM.Collect$$_printf_percent$$00000000  0x00000140   Section        0  _printf_percent.o(.ARM.Collect$$_printf_percent$$00000000)
    .ARM.Collect$$_printf_percent$$00000014  0x00000140   Section        6  _printf_s.o(.ARM.Collect$$_printf_percent$$00000014)
    .ARM.Collect$$_printf_percent$$00000017  0x00000146   Section        4  _printf_percent_end.o(.ARM.Collect$$_printf_percent$$00000017)
    .ARM.Collect$$libinit$$00000000          0x0000014a   Section        2  libinit.o(.ARM.Collect$$libinit$$00000000)
    .ARM.Collect$$libinit$$00000002          0x0000014c   Section        0  libinit2.o(.ARM.Collect$$libinit$$00000002)
    .ARM.Collect$$libinit$$00000004          0x0000014c   Section        0  libinit2.o(.ARM.Collect$$libinit$$00000004)
    .ARM.Collect$$libinit$$00000005          0x0000014c   Section        8  libinit2.o(.ARM.Collect$$libinit$$00000005)
    .ARM.Collect$$libinit$$0000000A          0x00000154   Section        0  libinit2.o(.ARM.Collect$$libinit$$0000000A)
    .ARM.Collect$$libinit$$0000000C          0x00000154   Section        0  libinit2.o(.ARM.Collect$$libinit$$0000000C)
    .ARM.Collect$$libinit$$0000000E          0x00000154   Section        0  libinit2.o(.ARM.Collect$$libinit$$0000000E)
    .ARM.Collect$$libinit$$00000011          0x00000154   Section        0  libinit2.o(.ARM.Collect$$libinit$$00000011)
    .ARM.Collect$$libinit$$00000013          0x00000154   Section        0  libinit2.o(.ARM.Collect$$libinit$$00000013)
    .ARM.Collect$$libinit$$00000015          0x00000154   Section        0  libinit2.o(.ARM.Collect$$libinit$$00000015)
    .ARM.Collect$$libinit$$00000017          0x00000154   Section        0  libinit2.o(.ARM.Collect$$libinit$$00000017)
    .ARM.Collect$$libinit$$00000019          0x00000154   Section        0  libinit2.o(.ARM.Collect$$libinit$$00000019)
    .ARM.Collect$$libinit$$0000001B          0x00000154   Section        0  libinit2.o(.ARM.Collect$$libinit$$0000001B)
    .ARM.Collect$$libinit$$0000001D          0x00000154   Section        0  libinit2.o(.ARM.Collect$$libinit$$0000001D)
    .ARM.Collect$$libinit$$0000001F          0x00000154   Section        0  libinit2.o(.ARM.Collect$$libinit$$0000001F)
    .ARM.Collect$$libinit$$00000021          0x00000154   Section        0  libinit2.o(.ARM.Collect$$libinit$$00000021)
    .ARM.Collect$$libinit$$00000023          0x00000154   Section        0  libinit2.o(.ARM.Collect$$libinit$$00000023)
    .ARM.Collect$$libinit$$00000025          0x00000154   Section        0  libinit2.o(.ARM.Collect$$libinit$$00000025)
    .ARM.Collect$$libinit$$0000002C          0x00000154   Section        0  libinit2.o(.ARM.Collect$$libinit$$0000002C)
    .ARM.Collect$$libinit$$0000002E          0x00000154   Section        0  libinit2.o(.ARM.Collect$$libinit$$0000002E)
    .ARM.Collect$$libinit$$00000030          0x00000154   Section        0  libinit2.o(.ARM.Collect$$libinit$$00000030)
    .ARM.Collect$$libinit$$00000031          0x00000154   Section        4  libinit2.o(.ARM.Collect$$libinit$$00000031)
    .ARM.Collect$$libinit$$00000032          0x00000158   Section        0  libinit2.o(.ARM.Collect$$libinit$$00000032)
    .ARM.Collect$$libinit$$00000033          0x00000158   Section        2  libinit2.o(.ARM.Collect$$libinit$$00000033)
    .ARM.Collect$$libshutdown$$00000000      0x0000015a   Section        2  libshutdown.o(.ARM.Collect$$libshutdown$$00000000)
    .ARM.Collect$$libshutdown$$00000001      0x0000015c   Section        6  libshutdown2.o(.ARM.Collect$$libshutdown$$00000001)
    .ARM.Collect$$libshutdown$$00000002      0x00000162   Section        0  libshutdown2.o(.ARM.Collect$$libshutdown$$00000002)
    .ARM.Collect$$libshutdown$$00000004      0x00000162   Section        0  libshutdown2.o(.ARM.Collect$$libshutdown$$00000004)
    .ARM.Collect$$libshutdown$$00000007      0x00000162   Section        0  libshutdown2.o(.ARM.Collect$$libshutdown$$00000007)
    .ARM.Collect$$libshutdown$$0000000A      0x00000162   Section        0  libshutdown2.o(.ARM.Collect$$libshutdown$$0000000A)
    .ARM.Collect$$libshutdown$$0000000C      0x00000162   Section        0  libshutdown2.o(.ARM.Collect$$libshutdown$$0000000C)
    .ARM.Collect$$libshutdown$$0000000F      0x00000162   Section        0  libshutdown2.o(.ARM.Collect$$libshutdown$$0000000F)
    .ARM.Collect$$libshutdown$$00000010      0x00000162   Section        2  libshutdown2.o(.ARM.Collect$$libshutdown$$00000010)
    .ARM.Collect$$rtentry$$00000000          0x00000164   Section        0  __rtentry.o(.ARM.Collect$$rtentry$$00000000)
    .ARM.Collect$$rtentry$$00000002          0x00000164   Section        0  __rtentry2.o(.ARM.Collect$$rtentry$$00000002)
    .ARM.Collect$$rtentry$$00000004          0x00000164   Section        6  __rtentry4.o(.ARM.Collect$$rtentry$$00000004)
    .ARM.Collect$$rtentry$$00000009          0x0000016a   Section        0  __rtentry2.o(.ARM.Collect$$rtentry$$00000009)
    .ARM.Collect$$rtentry$$0000000A          0x0000016a   Section        4  __rtentry2.o(.ARM.Collect$$rtentry$$0000000A)
    .ARM.Collect$$rtentry$$0000000B          0x0000016e   Section        8  __rtentry2.o(.ARM.Collect$$rtentry$$0000000B)
    .ARM.Collect$$rtentry$$0000000D          0x00000176   Section        8  __rtentry2.o(.ARM.Collect$$rtentry$$0000000D)
    .ARM.Collect$$rtexit$$00000000           0x0000017e   Section        2  rtexit.o(.ARM.Collect$$rtexit$$00000000)
    .ARM.Collect$$rtexit$$00000002           0x00000180   Section        0  rtexit2.o(.ARM.Collect$$rtexit$$00000002)
    .ARM.Collect$$rtexit$$00000003           0x00000180   Section        4  rtexit2.o(.ARM.Collect$$rtexit$$00000003)
    .ARM.Collect$$rtexit$$00000004           0x00000184   Section        6  rtexit2.o(.ARM.Collect$$rtexit$$00000004)
    .emb_text                                0x0000018c   Section       28  rtx_conf_cm.o(.emb_text)
    .emb_text                                0x000001a8   Section      304  hal_cm3.o(.emb_text)
    .emb_text                                0x000002d8   Section        0  maybetermalloc1.o(.emb_text)
    .text                                    0x000002d8   Section        0  rxf_behaviorpkg.o(.text)
    .text                                    0x000002e6   Section        0  wst_err.o(.text)
    .text                                    0x000002ec   Section        8  libspace.o(.text)
    .text                                    0x000002f4   Section        0  heapauxi.o(.text)
    .text                                    0x000002fa   Section        2  use_no_semi.o(.text)
    .ARM.__at_0x02FC                         0x000002fc   Section        4  startup_lpc17xx.o(.ARM.__at_0x02FC)
    .text                                    0x00000300   Section        0  defaultpkg.o(.text)
    .text                                    0x0000045c   Section        0  display.o(.text)
    .text                                    0x000006e8   Section        0  joystick.o(.text)
    .text                                    0x00000950   Section        0  led.o(.text)
    .text                                    0x00000d74   Section        0  ledbar.o(.text)
    <Func1>                                  0x00000d75   Thumb Code    14  ledbar.o(.text)
    .text                                    0x00001088   Section        0  mainmcb1700.o(.text)
    .text                                    0x000010d0   Section        0  runningindicatorled.o(.text)
    .text                                    0x00001390   Section        0  testbuilder.o(.text)
    .text                                    0x000016a8   Section        0  uartcontroller.o(.text)
    .text                                    0x00001798   Section        0  wstmonitor_sendtypes.o(.text)
    .text                                    0x00001802   Section        0  wst_evt.o(.text)
    .text                                    0x0000181c   Section        0  wst_fsm.o(.text)
    .text                                    0x00001dcc   Section        0  wst_mem.o(.text)
    .text                                    0x0000211c   Section        0  wst_msq.o(.text)
    .text                                    0x00002250   Section        0  wst_mtx.o(.text)
    .text                                    0x000022f4   Section        0  wst_rxf.o(.text)
    .text                                    0x00002310   Section        0  wst_tmm.o(.text)
    __sti___11_WST_TMM_cpp_5cffd7cf          0x000025ef   Thumb Code    10  wst_tmm.o(.text)
    .text                                    0x0000260c   Section        0  wst_tmr.o(.text)
    <Func3>                                  0x000026a1   Thumb Code    18  wst_tmr.o(.text)
    __sti___11_WST_TMR_cpp_d87a1f05          0x000026b3   Thumb Code    26  wst_tmr.o(.text)
    .text                                    0x000026e8   Section        0  wst_tsk.o(.text)
    .text                                    0x00002950   Section        0  wstmonitorio_keil_cortexm3_itm.o(.text)
    .text                                    0x000029d0   Section        0  wstrtos.o(.text)
    __sti___11_WSTRTOS_cpp_b410bc26          0x000029d1   Thumb Code    34  wstrtos.o(.text)
    .text                                    0x00002a08   Section        0  glcd_mcb1700.o(.text)
    delay_ms                                 0x00002a09   Thumb Code    38  glcd_mcb1700.o(.text)
    spi_tran_man                             0x00002a2f   Thumb Code   132  glcd_mcb1700.o(.text)
    spi_tran                                 0x00002ab3   Thumb Code    40  glcd_mcb1700.o(.text)
    wr_cmd                                   0x00002adb   Thumb Code    70  glcd_mcb1700.o(.text)
    wr_dat                                   0x00002b21   Thumb Code    72  glcd_mcb1700.o(.text)
    wr_dat_start                             0x00002b69   Thumb Code    20  glcd_mcb1700.o(.text)
    wr_dat_stop                              0x00002b7d   Thumb Code    14  glcd_mcb1700.o(.text)
    wr_dat_only                              0x00002b8b   Thumb Code    46  glcd_mcb1700.o(.text)
    rd_dat                                   0x00002bb9   Thumb Code    64  glcd_mcb1700.o(.text)
    wr_reg                                   0x00002bf9   Thumb Code   140  glcd_mcb1700.o(.text)
    rd_reg                                   0x00002c85   Thumb Code    16  glcd_mcb1700.o(.text)
    rd_id_man                                0x00002c95   Thumb Code   196  glcd_mcb1700.o(.text)
    .text                                    0x00003734   Section        0  rtx_conf_cm.o(.text)
    __tagsym$$used                           0x00003799   Number         0  rtx_conf_cm.o(.text)
    __tagsym$$used                           0x000037af   Number         0  rtx_conf_cm.o(.text)
    .text                                    0x000037dc   Section        0  ssp_lpc17xx.o(.text)
    GetSSPClockFreq                          0x000037dd   Thumb Code    64  ssp_lpc17xx.o(.text)
    SSP_GetVersion                           0x0000381d   Thumb Code    10  ssp_lpc17xx.o(.text)
    SSP_GetCapabilities                      0x00003827   Thumb Code     6  ssp_lpc17xx.o(.text)
    SSPx_Initialize                          0x0000382d   Thumb Code   168  ssp_lpc17xx.o(.text)
    SSPx_Uninitialize                        0x000038d5   Thumb Code   112  ssp_lpc17xx.o(.text)
    SSPx_PowerControl                        0x00003945   Thumb Code   430  ssp_lpc17xx.o(.text)
    SSPx_Send                                0x00003af3   Thumb Code   356  ssp_lpc17xx.o(.text)
    SSPx_Receive                             0x00003c57   Thumb Code   344  ssp_lpc17xx.o(.text)
    SSPx_Transfer                            0x00003daf   Thumb Code   338  ssp_lpc17xx.o(.text)
    SSPx_GetDataCount                        0x00003f01   Thumb Code    44  ssp_lpc17xx.o(.text)
    SSPx_Control                             0x00003f2d   Thumb Code  1314  ssp_lpc17xx.o(.text)
    SSPx_GetStatus                           0x0000444f   Thumb Code    90  ssp_lpc17xx.o(.text)
    SSPx_IRQHandler                          0x000044fb   Thumb Code   260  ssp_lpc17xx.o(.text)
    SSP1_Initialize                          0x000045ff   Thumb Code    14  ssp_lpc17xx.o(.text)
    SSP1_Uninitialize                        0x0000460d   Thumb Code    10  ssp_lpc17xx.o(.text)
    SSP1_PowerControl                        0x00004617   Thumb Code    14  ssp_lpc17xx.o(.text)
    SSP1_Send                                0x00004625   Thumb Code    18  ssp_lpc17xx.o(.text)
    SSP1_Receive                             0x00004637   Thumb Code    18  ssp_lpc17xx.o(.text)
    SSP1_Transfer                            0x00004649   Thumb Code    22  ssp_lpc17xx.o(.text)
    SSP1_GetDataCount                        0x0000465f   Thumb Code    10  ssp_lpc17xx.o(.text)
    SSP1_Control                             0x00004669   Thumb Code    18  ssp_lpc17xx.o(.text)
    SSP1_GetStatus                           0x0000467b   Thumb Code    12  ssp_lpc17xx.o(.text)
    __NVIC_ClearPendingIRQ                   0x000046ad   Thumb Code    22  ssp_lpc17xx.o(.text)
    .text                                    0x000046cc   Section        0  gpdma_lpc17xx.o(.text)
    Set_Channel_active_flag                  0x000046cd   Thumb Code    50  gpdma_lpc17xx.o(.text)
    __NVIC_ClearPendingIRQ                   0x00004b69   Thumb Code    22  gpdma_lpc17xx.o(.text)
    Clear_Channel_active_flag                0x00004b7f   Thumb Code    28  gpdma_lpc17xx.o(.text)
    .text                                    0x00004bac   Section        0  gpio_lpc17xx.o(.text)
    .text                                    0x00004c78   Section        0  pin_lpc17xx.o(.text)
    .text                                    0x00004db4   Section       64  startup_lpc17xx.o(.text)
    .text                                    0x00004df4   Section        0  system_lpc17xx.o(.text)
    .text                                    0x000050e4   Section      238  lludivv7m.o(.text)
    .text                                    0x000051d4   Section        0  noretval__2sprintf.o(.text)
    .text                                    0x000051fc   Section        0  __printf.o(.text)
    .text                                    0x00005264   Section        0  _printf_str.o(.text)
    .text                                    0x000052b6   Section        0  exit.o(.text)
    .text                                    0x000052c8   Section        0  aeabi_atexit.o(.text)
    .text                                    0x000052f6   Section      138  rt_memcpy_v6.o(.text)
    .text                                    0x00005380   Section      100  rt_memcpy_w.o(.text)
    .text                                    0x000053e4   Section       78  rt_memclr_w.o(.text)
    .text                                    0x00005434   Section      128  strcmpv7m.o(.text)
    .text                                    0x000054b4   Section        0  init_aeabi.o(.text)
    .text                                    0x000054d8   Section        0  aeabi_vec_dtor_noexceptions.o(.text)
    .text                                    0x000054fa   Section       10  rt_ddtor_pointer_addr_twolibspace.o(.text)
    .text                                    0x00005504   Section        0  h1_alloc_mt.o(.text)
    Heap1_SizeAdjust                         0x00005505   Thumb Code     8  h1_alloc_mt.o(.text)
    .text                                    0x000055a2   Section        0  h1_free_mt.o(.text)
    .text                                    0x00005618   Section        0  _printf_char_common.o(.text)
    _printf_input_char                       0x00005619   Thumb Code    10  _printf_char_common.o(.text)
    .text                                    0x00005648   Section        0  _sputc.o(.text)
    .text                                    0x00005652   Section        0  _printf_char.o(.text)
    .text                                    0x0000567e   Section        0  cxa_finalize.o(.text)
    .text                                    0x000056c0   Section       10  rt_heap_descriptor_twolibspace.o(.text)
    .text                                    0x000056ca   Section       10  rt_new_handler_addr_twolibspace.o(.text)
    .text                                    0x000056d4   Section        0  hguard.o(.text)
    .text                                    0x000056d8   Section        0  init_alloc.o(.text)
    .text                                    0x00005762   Section        0  h1_init_mt.o(.text)
    .text                                    0x00005774   Section        0  arm_newhandler_noexceptions.o(.text)
    .text                                    0x00005778   Section        0  arm_exceptions_terminate.o(.text)
    .text                                    0x00005794   Section        0  arm_exceptions_globs.o(.text)
    [local to arm_exceptions_c]::__default_terminate_handler() 0x00005795   Thumb Code     6  arm_exceptions_globs.o(.text)
    .text                                    0x000057e4   Section        0  sys_exit.o(.text)
    .text                                    0x000057f0   Section       74  sys_stackheap_outer.o(.text)
    .text                                    0x0000583a   Section       10  rt_eh_globals_addr_twolibspace.o(.text)
    .text                                    0x00005844   Section        0  h1_extend_mt.o(.text)
    .text                                    0x00005882   Section        0  abort.o(.text)
    .text                                    0x00005898   Section        0  defsig_rtmem_outer.o(.text)
    .text                                    0x000058a6   Section        0  arm_exceptions_mem.o(.text)
    .text                                    0x000058e2   Section        0  indicate_semi.o(.text)
    .text                                    0x000058e2   Section        0  defsig_exit.o(.text)
    .text                                    0x000058ec   Section        0  defsig_abrt_outer.o(.text)
    .text                                    0x000058fc   Section        0  defsig_rtmem_inner.o(.text)
    .text                                    0x0000594c   Section        0  defsig_general.o(.text)
    .text                                    0x00005980   Section        0  defsig_abrt_inner.o(.text)
    .text                                    0x000059b0   Section        0  sys_wrch.o(.text)
    CODE_ANIM_RUNNING_FAST                   0x000059c0   Section        0  wstmonitor.o(CODE_ANIM_RUNNING_FAST)
    CODE_RXF_RUNNING_FAST                    0x00006008   Section        0  defaultpkg.o(CODE_RXF_RUNNING_FAST)
    CODE_RXF_RUNNING_FAST                    0x00006018   Section        0  defaultpkg.o(CODE_RXF_RUNNING_FAST)
    CODE_RXF_RUNNING_FAST                    0x0000602c   Section        0  wst_osw.o(CODE_RXF_RUNNING_FAST)
    CODE_RXF_RUNNING_FAST                    0x00006544   Section        0  wstrtos.o(CODE_RXF_RUNNING_FAST)
    CODE_RXF_RUNNING_FAST                    0x000065f0   Section        0  wsttarget.o(CODE_RXF_RUNNING_FAST)
    SVC_TABLE                                0x00006614   Section        4  svc_table.o(SVC_TABLE)
    i._ZN14evReceivedDataD0Ev                0x00006618   Section        0  defaultpkg.o(i._ZN14evReceivedDataD0Ev)
    i._ZN14evReceivedDataD1Ev                0x0000662e   Section        0  defaultpkg.o(i._ZN14evReceivedDataD1Ev)
    i._ZN21evNewJoystickPositionD0Ev         0x00006632   Section        0  defaultpkg.o(i._ZN21evNewJoystickPositionD0Ev)
    i._ZN21evNewJoystickPositionD1Ev         0x00006648   Section        0  defaultpkg.o(i._ZN21evNewJoystickPositionD1Ev)
    i._ZN4evOnD0Ev                           0x0000664c   Section        0  defaultpkg.o(i._ZN4evOnD0Ev)
    i._ZN4evOnD1Ev                           0x00006662   Section        0  defaultpkg.o(i._ZN4evOnD1Ev)
    i._ZN5evOffD0Ev                          0x00006666   Section        0  defaultpkg.o(i._ZN5evOffD0Ev)
    i._ZN5evOffD1Ev                          0x0000667c   Section        0  defaultpkg.o(i._ZN5evOffD1Ev)
    i._ZN7WST_TMRC1Ev                        0x00006680   Section        0  wst_tmr.o(i._ZN7WST_TMRC1Ev)
    i._ZN7WST_TMRD0Ev                        0x00006698   Section        0  wst_tmm.o(i._ZN7WST_TMRD0Ev)
    i._ZN7WST_TMRD1Ev                        0x000066aa   Section        0  wst_tmm.o(i._ZN7WST_TMRD1Ev)
    i._ZN7evBlinkD0Ev                        0x000066b2   Section        0  defaultpkg.o(i._ZN7evBlinkD0Ev)
    i._ZN7evBlinkD1Ev                        0x000066c8   Section        0  defaultpkg.o(i._ZN7evBlinkD1Ev)
    i._ZN8evToggleD0Ev                       0x000066cc   Section        0  defaultpkg.o(i._ZN8evToggleD0Ev)
    i._ZN8evToggleD1Ev                       0x000066e2   Section        0  defaultpkg.o(i._ZN8evToggleD1Ev)
    i._ZdlPv                                 0x000066e6   Section        0  delete.o(i._ZdlPv)
    i._Znaj                                  0x000066ee   Section        0  array_new.o(i._Znaj)
    i._Znwj                                  0x000066f8   Section        0  new.o(i._Znwj)
    i.__aeabi_vec_ctor_nocookie_nodtor       0x00006720   Section        0  aeabi_vec_ctor_nocookie_nodtor.o(i.__aeabi_vec_ctor_nocookie_nodtor)
    i.__cxa_guard_acquire                    0x00006744   Section        0  cxa_guard_acquire.o(i.__cxa_guard_acquire)
    i._init_box                              0x00006754   Section        0  rt_membox.o(i._init_box)
    i.dbg_init                               0x0000679c   Section        0  hal_cm.o(i.dbg_init)
    i.dbg_task_notify                        0x000067cc   Section        0  hal_cm.o(i.dbg_task_notify)
    i.dbg_task_switch                        0x000067ec   Section        0  hal_cm.o(i.dbg_task_switch)
    i.isrMessageGet                          0x000067fc   Section        0  rt_cmsis.o(i.isrMessageGet)
    i.isrMessagePut                          0x00006826   Section        0  rt_cmsis.o(i.isrMessagePut)
    i.isr_mbx_receive                        0x00006854   Section        0  rt_mailbox.o(i.isr_mbx_receive)
    i.isr_mbx_send                           0x000068aa   Section        0  rt_mailbox.o(i.isr_mbx_send)
    i.osDelay                                0x000068b8   Section        0  rt_cmsis.o(i.osDelay)
    i.osKernelInitialize                     0x000068d0   Section        0  rt_cmsis.o(i.osKernelInitialize)
    i.osKernelRunning                        0x000068f4   Section        0  rt_cmsis.o(i.osKernelRunning)
    i.osKernelStart                          0x00006918   Section        0  rt_cmsis.o(i.osKernelStart)
    i.osMessageCreate                        0x00006984   Section        0  rt_cmsis.o(i.osMessageCreate)
    i.osMessageGet                           0x000069b0   Section        0  rt_cmsis.o(i.osMessageGet)
    i.osMessagePut                           0x000069c8   Section        0  rt_cmsis.o(i.osMessagePut)
    i.osMutexCreate                          0x000069e0   Section        0  rt_cmsis.o(i.osMutexCreate)
    i.osMutexDelete                          0x00006a0c   Section        0  rt_cmsis.o(i.osMutexDelete)
    i.osMutexRelease                         0x00006a24   Section        0  rt_cmsis.o(i.osMutexRelease)
    i.osMutexWait                            0x00006a3c   Section        0  rt_cmsis.o(i.osMutexWait)
    i.osThreadCreate                         0x00006a54   Section        0  rt_cmsis.o(i.osThreadCreate)
    i.osThreadExit                           0x00006a80   Section        0  rt_cmsis.o(i.osThreadExit)
    i.osThreadGetId                          0x00006a98   Section        0  rt_cmsis.o(i.osThreadGetId)
    i.osThreadTerminate                      0x00006ab0   Section        0  rt_cmsis.o(i.osThreadTerminate)
    i.osTimerCall                            0x00006ac8   Section        0  rt_cmsis.o(i.osTimerCall)
    i.osTimerCreate                          0x00006ad4   Section        0  rt_cmsis.o(i.osTimerCreate)
    i.osTimerStart                           0x00006b00   Section        0  rt_cmsis.o(i.osTimerStart)
    i.osTimerThread                          0x00006b18   Section        0  rt_cmsis.o(i.osTimerThread)
    i.os_tick_init                           0x00006b44   Section        0  rt_system.o(i.os_tick_init)
    i.os_tick_irqack                         0x00006b6c   Section        0  rt_system.o(i.os_tick_irqack)
    i.rt_alloc_box                           0x00006b6e   Section        0  rt_membox.o(i.rt_alloc_box)
    i.rt_alloc_mem                           0x00006b88   Section        0  rt_memory.o(i.rt_alloc_mem)
    i.rt_block                               0x00006bc8   Section        0  rt_task.o(i.rt_block)
    i.rt_dec_dly                             0x00006c00   Section        0  rt_list.o(i.rt_dec_dly)
    i.rt_dispatch                            0x00006c70   Section        0  rt_task.o(i.rt_dispatch)
    i.rt_dly_wait                            0x00006cb4   Section        0  rt_time.o(i.rt_dly_wait)
    i.rt_evt_psh                             0x00006cbc   Section        0  rt_event.o(i.rt_evt_psh)
    i.rt_free_box                            0x00006d0c   Section        0  rt_membox.o(i.rt_free_box)
    i.rt_free_mem                            0x00006d38   Section        0  rt_memory.o(i.rt_free_mem)
    i.rt_get_first                           0x00006d60   Section        0  rt_list.o(i.rt_get_first)
    i.rt_id2obj                              0x00006d88   Section        0  rt_cmsis.o(i.rt_id2obj)
    rt_id2obj                                0x00006d89   Thumb Code     8  rt_cmsis.o(i.rt_id2obj)
    i.rt_init_context                        0x00006d90   Section        0  rt_task.o(i.rt_init_context)
    rt_init_context                          0x00006d91   Thumb Code    66  rt_task.o(i.rt_init_context)
    i.rt_init_mem                            0x00006dd8   Section        0  rt_memory.o(i.rt_init_mem)
    i.rt_init_stack                          0x00006df4   Section        0  hal_cm.o(i.rt_init_stack)
    i.rt_mbx_check                           0x00006e74   Section        0  rt_mailbox.o(i.rt_mbx_check)
    i.rt_mbx_init                            0x00006e7c   Section        0  rt_mailbox.o(i.rt_mbx_init)
    i.rt_mbx_psh                             0x00006e98   Section        0  rt_mailbox.o(i.rt_mbx_psh)
    i.rt_mbx_send                            0x00006f88   Section        0  rt_mailbox.o(i.rt_mbx_send)
    i.rt_mbx_wait                            0x00007020   Section        0  rt_mailbox.o(i.rt_mbx_wait)
    i.rt_ms2tick                             0x000070d4   Section        0  rt_cmsis.o(i.rt_ms2tick)
    rt_ms2tick                               0x000070d5   Thumb Code    58  rt_cmsis.o(i.rt_ms2tick)
    i.rt_mut_delete                          0x00007118   Section        0  rt_mutex.o(i.rt_mut_delete)
    i.rt_mut_init                            0x000071c8   Section        0  rt_mutex.o(i.rt_mut_init)
    i.rt_mut_release                         0x000071d8   Section        0  rt_mutex.o(i.rt_mut_release)
    i.rt_mut_wait                            0x000072b0   Section        0  rt_mutex.o(i.rt_mut_wait)
    i.rt_pop_req                             0x00007328   Section        0  rt_system.o(i.rt_pop_req)
    i.rt_psh_req                             0x000073a4   Section        0  rt_system.o(i.rt_psh_req)
    i.rt_psq_enq                             0x000073c4   Section        0  rt_list.o(i.rt_psq_enq)
    i.rt_put_dly                             0x00007420   Section        0  rt_list.o(i.rt_put_dly)
    i.rt_put_prio                            0x00007468   Section        0  rt_list.o(i.rt_put_prio)
    i.rt_put_rdy_first                       0x000074a0   Section        0  rt_list.o(i.rt_put_rdy_first)
    i.rt_resort_prio                         0x000074b4   Section        0  rt_list.o(i.rt_resort_prio)
    i.rt_ret_val                             0x000074e8   Section        0  hal_cm.o(i.rt_ret_val)
    i.rt_ret_val2                            0x000074ee   Section        0  hal_cm.o(i.rt_ret_val2)
    i.rt_rmv_dly                             0x000074f6   Section        0  rt_list.o(i.rt_rmv_dly)
    i.rt_rmv_list                            0x00007520   Section        0  rt_list.o(i.rt_rmv_list)
    i.rt_sem_psh                             0x00007550   Section        0  rt_semaphore.o(i.rt_sem_psh)
    i.rt_stk_check                           0x00007584   Section        0  rt_system.o(i.rt_stk_check)
    i.rt_switch_req                          0x000075a8   Section        0  rt_task.o(i.rt_switch_req)
    i.rt_sys_init                            0x000075d0   Section        0  rt_task.o(i.rt_sys_init)
    i.rt_sys_start                           0x0000769c   Section        0  rt_task.o(i.rt_sys_start)
    i.rt_systick                             0x00007714   Section        0  rt_system.o(i.rt_systick)
    i.rt_tid2ptcb                            0x00007754   Section        0  rt_cmsis.o(i.rt_tid2ptcb)
    rt_tid2ptcb                              0x00007755   Thumb Code    18  rt_cmsis.o(i.rt_tid2ptcb)
    i.rt_timer_insert                        0x00007768   Section        0  rt_cmsis.o(i.rt_timer_insert)
    rt_timer_insert                          0x00007769   Thumb Code    48  rt_cmsis.o(i.rt_timer_insert)
    i.rt_timer_remove                        0x0000779c   Section        0  rt_cmsis.o(i.rt_timer_remove)
    rt_timer_remove                          0x0000779d   Thumb Code    56  rt_cmsis.o(i.rt_timer_remove)
    i.rt_tsk_create                          0x000077d8   Section        0  rt_task.o(i.rt_tsk_create)
    i.rt_tsk_delete                          0x00007860   Section        0  rt_task.o(i.rt_tsk_delete)
    i.rt_tsk_prio                            0x000079dc   Section        0  rt_task.o(i.rt_tsk_prio)
    i.rt_tsk_self                            0x00007a58   Section        0  rt_task.o(i.rt_tsk_self)
    i.svcDelay                               0x00007a68   Section        0  rt_cmsis.o(i.svcDelay)
    i.svcKernelInitialize                    0x00007a7c   Section        0  rt_cmsis.o(i.svcKernelInitialize)
    i.svcKernelRunning                       0x00007aec   Section        0  rt_cmsis.o(i.svcKernelRunning)
    i.svcKernelStart                         0x00007af8   Section        0  rt_cmsis.o(i.svcKernelStart)
    i.svcMessageCreate                       0x00007b40   Section        0  rt_cmsis.o(i.svcMessageCreate)
    i.svcMessageGet                          0x00007b64   Section        0  rt_cmsis.o(i.svcMessageGet)
    i.svcMessagePut                          0x00007b9e   Section        0  rt_cmsis.o(i.svcMessagePut)
    i.svcMutexCreate                         0x00007bd4   Section        0  rt_cmsis.o(i.svcMutexCreate)
    i.svcMutexDelete                         0x00007bf0   Section        0  rt_cmsis.o(i.svcMutexDelete)
    i.svcMutexRelease                        0x00007c0a   Section        0  rt_cmsis.o(i.svcMutexRelease)
    i.svcMutexWait                           0x00007c2c   Section        0  rt_cmsis.o(i.svcMutexWait)
    i.svcThreadCreate                        0x00007c68   Section        0  rt_cmsis.o(i.svcThreadCreate)
    i.svcThreadGetId                         0x00007cd4   Section        0  rt_cmsis.o(i.svcThreadGetId)
    i.svcThreadTerminate                     0x00007cf0   Section        0  rt_cmsis.o(i.svcThreadTerminate)
    i.svcTimerCall                           0x00007d28   Section        0  rt_cmsis.o(i.svcTimerCall)
    i.svcTimerCreate                         0x00007d40   Section        0  rt_cmsis.o(i.svcTimerCreate)
    i.svcTimerStart                          0x00007d78   Section        0  rt_cmsis.o(i.svcTimerStart)
    i.sysTimerTick                           0x00007ddc   Section        0  rt_cmsis.o(i.sysTimerTick)
    .constdata                               0x00007e38   Section     6304  glcd_fonts.o(.constdata)
    Font_6x8_h                               0x00007e38   Data         896  glcd_fonts.o(.constdata)
    Font_16x24_h                             0x000081b8   Data        5376  glcd_fonts.o(.constdata)
    .constdata                               0x000096d8   Section      104  rtx_conf_cm.o(.constdata)
    __tagsym$$used                           0x000096f4   Number         0  rtx_conf_cm.o(.constdata)
    __tagsym$$used                           0x000096f8   Number         0  rtx_conf_cm.o(.constdata)
    __tagsym$$used                           0x000096fc   Number         0  rtx_conf_cm.o(.constdata)
    __tagsym$$used                           0x00009700   Number         0  rtx_conf_cm.o(.constdata)
    .constdata                               0x00009740   Section      124  ssp_lpc17xx.o(.constdata)
    DriverVersion                            0x00009740   Data           4  ssp_lpc17xx.o(.constdata)
    DriverCapabilities                       0x00009744   Data           4  ssp_lpc17xx.o(.constdata)
    SSP1_Resources                           0x00009748   Data          72  ssp_lpc17xx.o(.constdata)
    .constdata__ZTV11TestBuilder             0x000097bc   Section       44  testbuilder.o(.constdata__ZTV11TestBuilder)
    .constdata__ZTV14UartController          0x000097e8   Section       16  uartcontroller.o(.constdata__ZTV14UartController)
    .constdata__ZTV14evReceivedData          0x000097f8   Section       20  defaultpkg.o(.constdata__ZTV14evReceivedData)
    .constdata__ZTV19RunningIndicatorLed     0x0000980c   Section       68  runningindicatorled.o(.constdata__ZTV19RunningIndicatorLed)
    .constdata__ZTV21evNewJoystickPosition   0x00009850   Section       20  defaultpkg.o(.constdata__ZTV21evNewJoystickPosition)
    .constdata__ZTV3Led                      0x00009864   Section       40  led.o(.constdata__ZTV3Led)
    .constdata__ZTV4evOn                     0x0000988c   Section       20  defaultpkg.o(.constdata__ZTV4evOn)
    .constdata__ZTV5evOff                    0x000098a0   Section       20  defaultpkg.o(.constdata__ZTV5evOff)
    .constdata__ZTV6LedBar                   0x000098b4   Section       44  ledbar.o(.constdata__ZTV6LedBar)
    .constdata__ZTV7Display                  0x000098e0   Section       40  display.o(.constdata__ZTV7Display)
    .constdata__ZTV7WST_EVT                  0x00009908   Section       16  defaultpkg.o(.constdata__ZTV7WST_EVT)
    .constdata__ZTV7WST_FSM                  0x00009918   Section       36  wst_fsm.o(.constdata__ZTV7WST_FSM)
    .constdata__ZTV7WST_TMR                  0x0000993c   Section       16  wst_tmm.o(.constdata__ZTV7WST_TMR)
    .constdata__ZTV7WST_TSK                  0x0000994c   Section       16  wst_tsk.o(.constdata__ZTV7WST_TSK)
    .constdata__ZTV7evBlink                  0x0000995c   Section       20  defaultpkg.o(.constdata__ZTV7evBlink)
    .constdata__ZTV8Joystick                 0x00009970   Section       68  joystick.o(.constdata__ZTV8Joystick)
    .constdata__ZTV8evToggle                 0x000099b4   Section       20  defaultpkg.o(.constdata__ZTV8evToggle)
    .init_array                              0x000099f8   Section        4  wst_tmm.o(.init_array)
    .init_array                              0x000099fc   Section        4  wst_tmr.o(.init_array)
    .init_array                              0x00009a00   Section        4  wstrtos.o(.init_array)
    .init_array                              0x00009a04   Section        0  init_aeabi.o(.init_array)
    .bss                                     0x10000000   Section     9572  rtx_conf_cm.o(.bss)
    std_libspace                             0x10002124   Data         960  rtx_conf_cm.o(.bss)
    std_libmutex                             0x100024e4   Data         128  rtx_conf_cm.o(.bss)
    .data                                    0x2007c000   Section       10  wst_cfg_highwater.o(.data)
    .data                                    0x2007c00c   Section       21  wst_mem.o(.data)
    _ZGVinstance                             0x2007c01c   Data           4  wst_mem.o(.data)
    instance                                 0x2007c020   Data           1  wst_mem.o(.data)
    .data                                    0x2007c024   Section        5  wst_osw.o(.data)
    _ZGV_ZZ24WST_OSW_MSQ_cancelEventsP7WST_MSQPK7WST_FSMsE7tempMSQ 0x2007c024   Data           4  wst_osw.o(.data)
    WST_OSW_MSQ_cancelEvents(WST_MSQ*, const WST_FSM*, short)::firstTime 0x2007c028   Data           1  wst_osw.o(.data)
    .data                                    0x2007c02c   Section        4  wst_tmr.o(.data)
    .data                                    0x2007c030   Section        5  wst_tsk.o(.data)
    .data                                    0x2007c038   Section       38  wstmonitor.o(.data)
    cmdBuffVersion                           0x2007c038   Data           4  wstmonitor.o(.data)
    cmdBuffVersion                           0x2007c03c   Data           3  wstmonitor.o(.data)
    version                                  0x2007c03f   Data           3  wstmonitor.o(.data)
    pTemp                                    0x2007c044   Data           4  wstmonitor.o(.data)
    cmdBuff                                  0x2007c048   Data           2  wstmonitor.o(.data)
    cmdBuff                                  0x2007c04a   Data           4  wstmonitor.o(.data)
    cmdBuff                                  0x2007c04e   Data           2  wstmonitor.o(.data)
    cmdBuff                                  0x2007c050   Data           2  wstmonitor.o(.data)
    cmdBuff                                  0x2007c052   Data           2  wstmonitor.o(.data)
    cmdBuff                                  0x2007c054   Data           2  wstmonitor.o(.data)
    cmdBuff                                  0x2007c056   Data           2  wstmonitor.o(.data)
    cmdBuff                                  0x2007c058   Data           2  wstmonitor.o(.data)
    cmdBuff                                  0x2007c05a   Data           2  wstmonitor.o(.data)
    cmdBuffVersion                           0x2007c05c   Data           2  wstmonitor.o(.data)
    .data                                    0x2007c060   Section        4  wstmonitorio_keil_cortexm3_itm.o(.data)
    .data                                    0x2007c064   Section       17  glcd_mcb1700.o(.data)
    spi1_pins                                0x2007c064   Data           8  glcd_mcb1700.o(.data)
    foreground_color                         0x2007c06c   Data           2  glcd_mcb1700.o(.data)
    background_color                         0x2007c06e   Data           2  glcd_mcb1700.o(.data)
    active_font                              0x2007c070   Data           4  glcd_mcb1700.o(.data)
    Himax                                    0x2007c074   Data           1  glcd_mcb1700.o(.data)
    .data                                    0x2007c078   Section       20  rtx_conf_cm.o(.data)
    nr_mutex                                 0x2007c088   Data           4  rtx_conf_cm.o(.data)
    .data                                    0x2007c08c   Section       16  ssp_lpc17xx.o(.data)
    SSP1_pin_sck                             0x2007c08c   Data           2  ssp_lpc17xx.o(.data)
    SSP1_pin_miso                            0x2007c08e   Data           2  ssp_lpc17xx.o(.data)
    SSP1_pin_mosi                            0x2007c090   Data           2  ssp_lpc17xx.o(.data)
    SSP1_pin_ssel                            0x2007c092   Data           2  ssp_lpc17xx.o(.data)
    dummy_data                               0x2007c094   Data           4  ssp_lpc17xx.o(.data)
    dummy_data                               0x2007c098   Data           4  ssp_lpc17xx.o(.data)
    .data                                    0x2007c09c   Section        8  gpdma_lpc17xx.o(.data)
    Channel_active                           0x2007c09c   Data           4  gpdma_lpc17xx.o(.data)
    Init_cnt                                 0x2007c0a0   Data           4  gpdma_lpc17xx.o(.data)
    .data                                    0x2007c0a4   Section        4  system_lpc17xx.o(.data)
    .data                                    0x2007c0a8   Section        8  rt_cmsis.o(.data)
    .data                                    0x2007c0b0   Section        8  rt_task.o(.data)
    .data                                    0x2007c0b8   Section        8  rt_system.o(.data)
    os_lock                                  0x2007c0b8   Data           1  rt_system.o(.data)
    os_psh_flag                              0x2007c0b9   Data           1  rt_system.o(.data)
    pend_flags                               0x2007c0ba   Data           1  rt_system.o(.data)
    .data                                    0x2007c0c0   Section        4  rt_time.o(.data)
    .data                                    0x2007c0c4   Section        1  hal_cm.o(.data)
    DATA_ANIM_RUNNING_UNSPECIFIED_NOINIT_FAST 0x2007c0c8   Section       36  wstmonitor.o(DATA_ANIM_RUNNING_UNSPECIFIED_NOINIT_FAST)
    DATA_RXF_RUNNING_32_INIT_FAST            0x2007c0ec   Section        4  wstrtos.o(DATA_RXF_RUNNING_32_INIT_FAST)
    rxfTicks                                 0x2007c0ec   Data           4  wstrtos.o(DATA_RXF_RUNNING_32_INIT_FAST)
    DATA_RXF_RUNNING_UNSPECIFIED_NOINIT_FAST 0x2007c0f0   Section        5  wst_osw.o(DATA_RXF_RUNNING_UNSPECIFIED_NOINIT_FAST)
    .bss                                     0x2007c0f8   Section      656  wst_mem.o(.bss)
    .bss                                     0x2007c388   Section       76  wst_osw.o(.bss)
    WST_OSW_MSQ_cancelEvents(WST_MSQ*, const WST_FSM*, short)::tempMSQ 0x2007c3c0   Data          20  wst_osw.o(.bss)
    .bss                                     0x2007c3d4   Section       16  wst_tmm.o(.bss)
    .bss                                     0x2007c3e4   Section     1280  wst_tmr.o(.bss)
    .bss                                     0x2007c8e4   Section      576  wstmonitor.o(.bss)
    .bss                                     0x2007cb24   Section       64  wstrtos.o(.bss)
    .bss                                     0x2007cb64   Section       40  ssp_lpc17xx.o(.bss)
    SSP1_Info                                0x2007cb64   Data          12  ssp_lpc17xx.o(.bss)
    SSP1_Xfer                                0x2007cb70   Data          28  ssp_lpc17xx.o(.bss)
    .bss                                     0x2007cb8c   Section      160  gpdma_lpc17xx.o(.bss)
    Channel_info                             0x2007cb8c   Data         160  gpdma_lpc17xx.o(.bss)
    .bss                                     0x2007cc2c   Section       52  rt_task.o(.bss)
    .bss                                     0x2007cc60   Section       48  rt_list.o(.bss)
    .bss                                     0x2007cc90   Section       96  libspace.o(.bss)
    HEAP                                     0x2007ccf0   Section     4096  startup_lpc17xx.o(HEAP)
    Heap_Mem                                 0x2007ccf0   Data        4096  startup_lpc17xx.o(HEAP)
    STACK                                    0x2007dcf0   Section     1024  startup_lpc17xx.o(STACK)
    Stack_Mem                                0x2007dcf0   Data        1024  startup_lpc17xx.o(STACK)
    __initial_sp                             0x2007e0f0   Data           0  startup_lpc17xx.o(STACK)

    Global Symbols

    Symbol Name                              Value     Ov Type        Size  Object(Section)

    BuildAttributes$$THM_ISAv4$P$D$K$B$S$PE$A:L22UL41UL21$X:L11$S22US41US21$IEEE1$IW$USESV6$~STKCKD$USESV7$~SHL$OTIME$ROPI$EBA8$UX$STANDARDLIB$REQ8$PRES8$EABIv2 0x00000000   Number         0  anon$$obj.o ABSOLUTE
    __ARM_use_no_argv                        0x00000000   Number         0  rxf_behaviorpkg.o ABSOLUTE
    __Vectors                                0x00000000   Data           4  startup_lpc17xx.o(RESET)
    __dso_handle                             0x00000000   Number         0  startup_lpc17xx.o(RESET)
    SHT$$ARM_EXIDX$$Base                      - Undefined Reference
    SHT$$ARM_EXIDX$$Limit                     - Undefined Reference
    __ARM::default_unexpected_handler()       - Undefined Weak Reference
    __ARM_exceptions_buffer_required          - Undefined Weak Reference
    __ARM_exceptions_init                     - Undefined Weak Reference
    __aeabi_unwind_cpp_pr1                    - Undefined Weak Reference
    __aeabi_unwind_cpp_pr2                    - Undefined Weak Reference
    __alloca_initialize                       - Undefined Weak Reference
    __arm_preinit_                            - Undefined Weak Reference
    __cxa_begin_cleanup                       - Undefined Weak Reference
    __cxa_type_match                          - Undefined Weak Reference
    __sigvec_lookup                           - Undefined Weak Reference
    __user_heap_extent                        - Undefined Weak Reference
    _atexit_init                              - Undefined Weak Reference
    _call_atexit_fns                          - Undefined Weak Reference
    _clock_init                               - Undefined Weak Reference
    _fp_trap_init                             - Undefined Weak Reference
    _fp_trap_shutdown                         - Undefined Weak Reference
    _get_lc_collate                           - Undefined Weak Reference
    _get_lc_monetary                          - Undefined Weak Reference
    _get_lc_numeric                           - Undefined Weak Reference
    _get_lc_time                              - Undefined Weak Reference
    _getenv_init                              - Undefined Weak Reference
    _handle_redirection                       - Undefined Weak Reference
    _initio                                   - Undefined Weak Reference
    _mutex_free                               - Undefined Weak Reference
    _printf_mbtowc                            - Undefined Weak Reference
    _printf_post_padding                      - Undefined Weak Reference
    _printf_pre_padding                       - Undefined Weak Reference
    _rand_init                                - Undefined Weak Reference
    _signal_finish                            - Undefined Weak Reference
    _signal_init                              - Undefined Weak Reference
    _terminateio                              - Undefined Weak Reference
    __main                                   0x000000cd   Thumb Code     8  __main.o(!!!main)
    __scatterload                            0x000000d5   Thumb Code     0  __scatter.o(!!!scatter)
    __scatterload_rt2                        0x000000d5   Thumb Code    44  __scatter.o(!!!scatter)
    __scatterload_rt2_thumb_only             0x000000d5   Thumb Code     0  __scatter.o(!!!scatter)
    __scatterload_null                       0x000000e3   Thumb Code     0  __scatter.o(!!!scatter)
    __scatterload_copy                       0x00000109   Thumb Code    26  __scatter_copy.o(!!handler_copy)
    __scatterload_zeroinit                   0x00000125   Thumb Code    28  __scatter_zi.o(!!handler_zi)
    _printf_percent                          0x00000141   Thumb Code     0  _printf_percent.o(.ARM.Collect$$_printf_percent$$00000000)
    _printf_s                                0x00000141   Thumb Code     0  _printf_s.o(.ARM.Collect$$_printf_percent$$00000014)
    _printf_percent_end                      0x00000147   Thumb Code     0  _printf_percent_end.o(.ARM.Collect$$_printf_percent$$00000017)
    __rt_lib_init                            0x0000014b   Thumb Code     0  libinit.o(.ARM.Collect$$libinit$$00000000)
    __rt_lib_init_fp_1                       0x0000014d   Thumb Code     0  libinit2.o(.ARM.Collect$$libinit$$00000002)
    __rt_lib_init_heap_2                     0x0000014d   Thumb Code     0  libinit2.o(.ARM.Collect$$libinit$$00000005)
    __rt_lib_init_preinit_1                  0x0000014d   Thumb Code     0  libinit2.o(.ARM.Collect$$libinit$$00000004)
    __rt_lib_init_alloca_1                   0x00000155   Thumb Code     0  libinit2.o(.ARM.Collect$$libinit$$0000002E)
    __rt_lib_init_argv_1                     0x00000155   Thumb Code     0  libinit2.o(.ARM.Collect$$libinit$$0000002C)
    __rt_lib_init_atexit_1                   0x00000155   Thumb Code     0  libinit2.o(.ARM.Collect$$libinit$$0000001B)
    __rt_lib_init_clock_1                    0x00000155   Thumb Code     0  libinit2.o(.ARM.Collect$$libinit$$00000021)
    __rt_lib_init_cpp_2                      0x00000155   Thumb Code     0  libinit2.o(.ARM.Collect$$libinit$$00000031)
    __rt_lib_init_exceptions_1               0x00000155   Thumb Code     0  libinit2.o(.ARM.Collect$$libinit$$00000030)
    __rt_lib_init_fp_trap_1                  0x00000155   Thumb Code     0  libinit2.o(.ARM.Collect$$libinit$$0000001F)
    __rt_lib_init_getenv_1                   0x00000155   Thumb Code     0  libinit2.o(.ARM.Collect$$libinit$$00000023)
    __rt_lib_init_heap_1                     0x00000155   Thumb Code     0  libinit2.o(.ARM.Collect$$libinit$$0000000A)
    __rt_lib_init_lc_collate_1               0x00000155   Thumb Code     0  libinit2.o(.ARM.Collect$$libinit$$00000011)
    __rt_lib_init_lc_ctype_1                 0x00000155   Thumb Code     0  libinit2.o(.ARM.Collect$$libinit$$00000013)
    __rt_lib_init_lc_monetary_1              0x00000155   Thumb Code     0  libinit2.o(.ARM.Collect$$libinit$$00000015)
    __rt_lib_init_lc_numeric_1               0x00000155   Thumb Code     0  libinit2.o(.ARM.Collect$$libinit$$00000017)
    __rt_lib_init_lc_time_1                  0x00000155   Thumb Code     0  libinit2.o(.ARM.Collect$$libinit$$00000019)
    __rt_lib_init_rand_1                     0x00000155   Thumb Code     0  libinit2.o(.ARM.Collect$$libinit$$0000000E)
    __rt_lib_init_signal_1                   0x00000155   Thumb Code     0  libinit2.o(.ARM.Collect$$libinit$$0000001D)
    __rt_lib_init_stdio_1                    0x00000155   Thumb Code     0  libinit2.o(.ARM.Collect$$libinit$$00000025)
    __rt_lib_init_user_alloc_1               0x00000155   Thumb Code     0  libinit2.o(.ARM.Collect$$libinit$$0000000C)
    __rt_lib_init_cpp_1                      0x00000159   Thumb Code     0  libinit2.o(.ARM.Collect$$libinit$$00000032)
    __rt_lib_init_return                     0x00000159   Thumb Code     0  libinit2.o(.ARM.Collect$$libinit$$00000033)
    __rt_lib_shutdown                        0x0000015b   Thumb Code     0  libshutdown.o(.ARM.Collect$$libshutdown$$00000000)
    __rt_lib_shutdown_cpp_2                  0x0000015d   Thumb Code     0  libshutdown2.o(.ARM.Collect$$libshutdown$$00000001)
    __rt_lib_shutdown_cpp_1                  0x00000163   Thumb Code     0  libshutdown2.o(.ARM.Collect$$libshutdown$$00000002)
    __rt_lib_shutdown_fp_trap_1              0x00000163   Thumb Code     0  libshutdown2.o(.ARM.Collect$$libshutdown$$00000007)
    __rt_lib_shutdown_heap_1                 0x00000163   Thumb Code     0  libshutdown2.o(.ARM.Collect$$libshutdown$$0000000F)
    __rt_lib_shutdown_return                 0x00000163   Thumb Code     0  libshutdown2.o(.ARM.Collect$$libshutdown$$00000010)
    __rt_lib_shutdown_signal_1               0x00000163   Thumb Code     0  libshutdown2.o(.ARM.Collect$$libshutdown$$0000000A)
    __rt_lib_shutdown_stdio_1                0x00000163   Thumb Code     0  libshutdown2.o(.ARM.Collect$$libshutdown$$00000004)
    __rt_lib_shutdown_user_alloc_1           0x00000163   Thumb Code     0  libshutdown2.o(.ARM.Collect$$libshutdown$$0000000C)
    __rt_entry                               0x00000165   Thumb Code     0  __rtentry.o(.ARM.Collect$$rtentry$$00000000)
    __rt_entry_presh_1                       0x00000165   Thumb Code     0  __rtentry2.o(.ARM.Collect$$rtentry$$00000002)
    __rt_entry_sh                            0x00000165   Thumb Code     0  __rtentry4.o(.ARM.Collect$$rtentry$$00000004)
    __rt_entry_li                            0x0000016b   Thumb Code     0  __rtentry2.o(.ARM.Collect$$rtentry$$0000000A)
    __rt_entry_postsh_1                      0x0000016b   Thumb Code     0  __rtentry2.o(.ARM.Collect$$rtentry$$00000009)
    __rt_entry_postli_1                      0x0000016f   Thumb Code     0  __rtentry2.o(.ARM.Collect$$rtentry$$0000000B)
    __rt_entry_main                          0x00000177   Thumb Code     0  __rtentry2.o(.ARM.Collect$$rtentry$$0000000D)
    __rt_exit                                0x0000017f   Thumb Code     0  rtexit.o(.ARM.Collect$$rtexit$$00000000)
    __rt_exit_ls                             0x00000181   Thumb Code     0  rtexit2.o(.ARM.Collect$$rtexit$$00000003)
    __rt_exit_prels_1                        0x00000181   Thumb Code     0  rtexit2.o(.ARM.Collect$$rtexit$$00000002)
    __rt_exit_exit                           0x00000185   Thumb Code     0  rtexit2.o(.ARM.Collect$$rtexit$$00000004)
    _platform_post_lib_init                  0x0000018d   Thumb Code    24  rtx_conf_cm.o(.emb_text)
    rt_set_PSP                               0x000001a9   Thumb Code     6  hal_cm3.o(.emb_text)
    rt_get_PSP                               0x000001af   Thumb Code     6  hal_cm3.o(.emb_text)
    os_set_env                               0x000001b5   Thumb Code    24  hal_cm3.o(.emb_text)
    _alloc_box                               0x000001d1   Thumb Code    28  hal_cm3.o(.emb_text)
    _free_box                                0x000001f1   Thumb Code    28  hal_cm3.o(.emb_text)
    SVC_Handler                              0x00000211   Thumb Code   108  hal_cm3.o(.emb_text)
    PendSV_Handler                           0x00000289   Thumb Code    56  hal_cm3.o(.emb_text)
    SysTick_Handler                          0x000002c5   Thumb Code     8  hal_cm3.o(.emb_text)
    OS_Tick_Handler                          0x000002cd   Thumb Code    12  hal_cm3.o(.emb_text)
    _maybe_terminate_alloc                   0x000002d9   Thumb Code     0  maybetermalloc1.o(.emb_text)
    main                                     0x000002d9   Thumb Code    14  rxf_behaviorpkg.o(.text)
    WST_ERR::~WST_ERR()                      0x000002e7   Thumb Code     2  wst_err.o(.text)
    WST_ERR::~WST_ERR__sub_object()          0x000002e7   Thumb Code     0  wst_err.o(.text)
    WST_ERR::error(const WST_ERR::ErrorCode&, const unsigned&) 0x000002e9   Thumb Code     4  wst_err.o(.text)
    __user_libspace                          0x000002ed   Thumb Code     8  libspace.o(.text)
    __user_perproc_libspace                  0x000002ed   Thumb Code     0  libspace.o(.text)
    __use_two_region_memory                  0x000002f5   Thumb Code     2  heapauxi.o(.text)
    __rt_heap_escrow                         0x000002f7   Thumb Code     2  heapauxi.o(.text)
    __rt_heap_expand                         0x000002f9   Thumb Code     2  heapauxi.o(.text)
    __I$use$semihosting                      0x000002fb   Thumb Code     0  use_no_semi.o(.text)
    __use_no_semihosting_swi                 0x000002fb   Thumb Code     2  use_no_semi.o(.text)
    WSTMonitor_getTypeSize0()                0x00000301   Thumb Code     4  defaultpkg.o(.text)
    evToggle::evToggle()                     0x00000305   Thumb Code    34  defaultpkg.o(.text)
    evToggle::evToggle__sub_object()         0x00000305   Thumb Code     0  defaultpkg.o(.text)
    evToggle::isTypeOf(short) const          0x00000327   Thumb Code    18  defaultpkg.o(.text)
    evOn::evOn()                             0x00000339   Thumb Code    34  defaultpkg.o(.text)
    evOn::evOn__sub_object()                 0x00000339   Thumb Code     0  defaultpkg.o(.text)
    evOn::isTypeOf(short) const              0x0000035b   Thumb Code    18  defaultpkg.o(.text)
    evOff::evOff()                           0x0000036d   Thumb Code    34  defaultpkg.o(.text)
    evOff::evOff__sub_object()               0x0000036d   Thumb Code     0  defaultpkg.o(.text)
    evOff::isTypeOf(short) const             0x0000038f   Thumb Code    18  defaultpkg.o(.text)
    evReceivedData::evReceivedData(char)     0x000003a1   Thumb Code    38  defaultpkg.o(.text)
    evReceivedData::evReceivedData__sub_object(char) 0x000003a1   Thumb Code     0  defaultpkg.o(.text)
    evReceivedData::isTypeOf(short) const    0x000003c7   Thumb Code    18  defaultpkg.o(.text)
    evNewJoystickPosition::evNewJoystickPosition(char) 0x000003d9   Thumb Code    38  defaultpkg.o(.text)
    evNewJoystickPosition::evNewJoystickPosition__sub_object(char) 0x000003d9   Thumb Code     0  defaultpkg.o(.text)
    evNewJoystickPosition::isTypeOf(short) const 0x000003ff   Thumb Code    18  defaultpkg.o(.text)
    evBlink::evBlink()                       0x00000411   Thumb Code    34  defaultpkg.o(.text)
    evBlink::evBlink__sub_object()           0x00000411   Thumb Code     0  defaultpkg.o(.text)
    evBlink::isTypeOf(short) const           0x00000433   Thumb Code    18  defaultpkg.o(.text)
    Display::initStatechart()                0x0000045d   Thumb Code     8  display.o(.text)
    Display::Display(WST_TSK*)               0x00000465   Thumb Code   208  display.o(.text)
    Display::Display__sub_object(WST_TSK*)   0x00000465   Thumb Code     0  display.o(.text)
    __RL_RTX_VER                             0x00000482   Number         0  rt_system.o ABSOLUTE
    Display::~Display()                      0x00000535   Thumb Code    26  display.o(.text)
    Display::~Display__sub_object()          0x00000535   Thumb Code     0  display.o(.text)
    Display::~Display__deallocating()        0x0000054f   Thumb Code    22  display.o(.text)
    Display::drawReceivedPosition(char)      0x00000565   Thumb Code    74  display.o(.text)
    Display::startBehavior()                 0x000005af   Thumb Code    18  display.o(.text)
    Display::rootState_entDef()              0x000005c1   Thumb Code     8  display.o(.text)
    Display::rootState_processEvent()        0x000005c9   Thumb Code    78  display.o(.text)
    Joystick::initStatechart()               0x000006e9   Thumb Code    10  joystick.o(.text)
    Joystick::Joystick(WST_TSK*)             0x000006f3   Thumb Code   106  joystick.o(.text)
    Joystick::Joystick__sub_object(WST_TSK*) 0x000006f3   Thumb Code     0  joystick.o(.text)
    Joystick::cancelTimeouts()               0x0000075d   Thumb Code    16  joystick.o(.text)
    Joystick::cleanUpRelations()             0x0000076d   Thumb Code    10  joystick.o(.text)
    Joystick::~Joystick()                    0x00000777   Thumb Code    56  joystick.o(.text)
    Joystick::~Joystick__sub_object()        0x00000777   Thumb Code     0  joystick.o(.text)
    Joystick::~Joystick__deallocating()      0x000007af   Thumb Code    22  joystick.o(.text)
    thunk{-64} to Joystick::~Joystick__deallocating() 0x000007c5   Thumb Code    14  joystick.o(.text)
    thunk{-64} to Joystick::~Joystick()      0x000007d3   Thumb Code    14  joystick.o(.text)
    Joystick::sample()                       0x000007e1   Thumb Code    32  joystick.o(.text)
    Joystick::getLastPosition() const        0x00000801   Thumb Code     6  joystick.o(.text)
    Joystick::setLastPosition(int)           0x00000807   Thumb Code     4  joystick.o(.text)
    Joystick::getSampleTime() const          0x0000080b   Thumb Code     6  joystick.o(.text)
    Joystick::setSampleTime(int)             0x00000811   Thumb Code     4  joystick.o(.text)
    Joystick::getItsUartController() const   0x00000815   Thumb Code     6  joystick.o(.text)
    Joystick::setItsUartController(UartController*) 0x0000081b   Thumb Code     4  joystick.o(.text)
    Joystick::startBehavior()                0x0000081f   Thumb Code    28  joystick.o(.text)
    Joystick::cancelTimeout(const WST_TMR*)  0x0000083b   Thumb Code    18  joystick.o(.text)
    thunk{-64} to Joystick::cancelTimeout(const WST_TMR*) 0x0000084d   Thumb Code    18  joystick.o(.text)
    Joystick::rootState_entDef()             0x0000085f   Thumb Code    26  joystick.o(.text)
    thunk{-64} to Joystick::rootState_entDef() 0x00000879   Thumb Code    14  joystick.o(.text)
    Joystick::rootState_processEvent()       0x00000887   Thumb Code   178  joystick.o(.text)
    thunk{-64} to Joystick::rootState_processEvent() 0x00000939   Thumb Code    14  joystick.o(.text)
    Led::initStatechart()                    0x00000951   Thumb Code    10  led.o(.text)
    Led::Led(int, WST_TSK*)                  0x0000095b   Thumb Code   148  led.o(.text)
    Led::Led__sub_object(int, WST_TSK*)      0x0000095b   Thumb Code     0  led.o(.text)
    Led::Led(WST_TSK*)                       0x000009ef   Thumb Code    70  led.o(.text)
    Led::Led__sub_object(WST_TSK*)           0x000009ef   Thumb Code     0  led.o(.text)
    Led::cancelTimeouts()                    0x00000a35   Thumb Code    14  led.o(.text)
    Led::~Led()                              0x00000a43   Thumb Code    32  led.o(.text)
    Led::~Led__sub_object()                  0x00000a43   Thumb Code     0  led.o(.text)
    Led::~Led__deallocating()                0x00000a63   Thumb Code    22  led.o(.text)
    Led::off()                               0x00000a79   Thumb Code    88  led.o(.text)
    Led::on()                                0x00000ad1   Thumb Code    88  led.o(.text)
    Led::getBitIndicator() const             0x00000b29   Thumb Code     6  led.o(.text)
    Led::setBitIndicator(int)                0x00000b2f   Thumb Code     4  led.o(.text)
    Led::getBlinkTimeoutMs() const           0x00000b33   Thumb Code     6  led.o(.text)
    Led::setBlinkTimeoutMs(int)              0x00000b39   Thumb Code     4  led.o(.text)
    Led::startBehavior()                     0x00000b3d   Thumb Code    18  led.o(.text)
    Led::cancelTimeout(const WST_TMR*)       0x00000b4f   Thumb Code    18  led.o(.text)
    Led::rootState_entDef()                  0x00000b61   Thumb Code    18  led.o(.text)
    Led::rootState_processEvent()            0x00000b73   Thumb Code   512  led.o(.text)
    LedBar::initStatechart()                 0x00000d83   Thumb Code    12  ledbar.o(.text)
    LedBar::setTask(WST_TSK*, bool)          0x00000d8f   Thumb Code    58  ledbar.o(.text)
    LedBar::LedBar(WST_TSK*)                 0x00000dc9   Thumb Code   142  ledbar.o(.text)
    LedBar::LedBar__sub_object(WST_TSK*)     0x00000dc9   Thumb Code     0  ledbar.o(.text)
    LedBar::~LedBar()                        0x00000e57   Thumb Code    40  ledbar.o(.text)
    LedBar::~LedBar__sub_object()            0x00000e57   Thumb Code     0  ledbar.o(.text)
    LedBar::~LedBar__deallocating()          0x00000e7f   Thumb Code    22  ledbar.o(.text)
    LedBar::offSingleLed(int)                0x00000e95   Thumb Code    28  ledbar.o(.text)
    LedBar::onSingleLed(int)                 0x00000eb1   Thumb Code    28  ledbar.o(.text)
    LedBar::toggleSingleLed(int)             0x00000ecd   Thumb Code    80  ledbar.o(.text)
    LedBar::processJoystickPosition()        0x00000f1d   Thumb Code    74  ledbar.o(.text)
    LedBar::getItsLeds() const               0x00000f67   Thumb Code     6  ledbar.o(.text)
    LedBar::startBehavior()                  0x00000f6d   Thumb Code    50  ledbar.o(.text)
    LedBar::getJoystickPosition() const      0x00000f9f   Thumb Code     6  ledbar.o(.text)
    LedBar::setJoystickPosition(char)        0x00000fa5   Thumb Code     4  ledbar.o(.text)
    LedBar::destroy()                        0x00000fa9   Thumb Code    42  ledbar.o(.text)
    LedBar::rootState_entDef()               0x00000fd3   Thumb Code    12  ledbar.o(.text)
    LedBar::rootState_processEvent()         0x00000fdf   Thumb Code   158  ledbar.o(.text)
    WST_RXF_Main(short, char**)              0x00001089   Thumb Code    72  mainmcb1700.o(.text)
    RunningIndicatorLed::ClassWSTMonitor_getTypeSize1() 0x000010d1   Thumb Code     4  runningindicatorled.o(.text)
    WSTMonitor_getTypeSize1()                0x000010d5   Thumb Code     8  runningindicatorled.o(.text)
    RunningIndicatorLed::initStatechart()    0x000010dd   Thumb Code    10  runningindicatorled.o(.text)
    RunningIndicatorLed::RunningIndicatorLed(WST_TSK*) 0x000010e7   Thumb Code    90  runningindicatorled.o(.text)
    RunningIndicatorLed::RunningIndicatorLed__sub_object(WST_TSK*) 0x000010e7   Thumb Code     0  runningindicatorled.o(.text)
    RunningIndicatorLed::cancelTimeouts()    0x00001141   Thumb Code    16  runningindicatorled.o(.text)
    RunningIndicatorLed::cleanUpRelations()  0x00001151   Thumb Code    10  runningindicatorled.o(.text)
    RunningIndicatorLed::~RunningIndicatorLed() 0x0000115b   Thumb Code    56  runningindicatorled.o(.text)
    RunningIndicatorLed::~RunningIndicatorLed__sub_object() 0x0000115b   Thumb Code     0  runningindicatorled.o(.text)
    RunningIndicatorLed::~RunningIndicatorLed__deallocating() 0x00001193   Thumb Code    22  runningindicatorled.o(.text)
    thunk{-64} to RunningIndicatorLed::~RunningIndicatorLed__deallocating() 0x000011a9   Thumb Code    14  runningindicatorled.o(.text)
    thunk{-64} to RunningIndicatorLed::~RunningIndicatorLed() 0x000011b7   Thumb Code    14  runningindicatorled.o(.text)
    RunningIndicatorLed::getItsLed() const   0x000011c5   Thumb Code     6  runningindicatorled.o(.text)
    RunningIndicatorLed::setItsLed(Led*)     0x000011cb   Thumb Code     4  runningindicatorled.o(.text)
    RunningIndicatorLed::startBehavior()     0x000011cf   Thumb Code    28  runningindicatorled.o(.text)
    RunningIndicatorLed::cancelTimeout(const WST_TMR*) 0x000011eb   Thumb Code    18  runningindicatorled.o(.text)
    thunk{-64} to RunningIndicatorLed::cancelTimeout(const WST_TMR*) 0x000011fd   Thumb Code    18  runningindicatorled.o(.text)
    RunningIndicatorLed::rootState_entDef()  0x0000120f   Thumb Code    72  runningindicatorled.o(.text)
    thunk{-64} to RunningIndicatorLed::rootState_entDef() 0x00001257   Thumb Code    14  runningindicatorled.o(.text)
    RunningIndicatorLed::rootState_processEvent() 0x00001265   Thumb Code   280  runningindicatorled.o(.text)
    thunk{-64} to RunningIndicatorLed::rootState_processEvent() 0x0000137d   Thumb Code    14  runningindicatorled.o(.text)
    TestBuilder::ClassWSTMonitor_getTypeSize2() 0x00001391   Thumb Code     4  testbuilder.o(.text)
    WSTMonitor_getTypeSize2()                0x00001395   Thumb Code     8  testbuilder.o(.text)
    TestBuilder::ClassWSTMonitor_getTypeSize3() 0x0000139d   Thumb Code     4  testbuilder.o(.text)
    WSTMonitor_getTypeSize3()                0x000013a1   Thumb Code     8  testbuilder.o(.text)
    TestBuilder::ClassWSTMonitor_getTypeSize4() 0x000013a9   Thumb Code     4  testbuilder.o(.text)
    WSTMonitor_getTypeSize4()                0x000013ad   Thumb Code     8  testbuilder.o(.text)
    TestBuilder::ClassWSTMonitor_getTypeSize5() 0x000013b5   Thumb Code     4  testbuilder.o(.text)
    WSTMonitor_getTypeSize5()                0x000013b9   Thumb Code     8  testbuilder.o(.text)
    TestBuilder::ClassWSTMonitor_getTypeSize6() 0x000013c1   Thumb Code     4  testbuilder.o(.text)
    WSTMonitor_getTypeSize6()                0x000013c5   Thumb Code     8  testbuilder.o(.text)
    TestBuilder::ClassWSTMonitor_getTypeSize7() 0x000013cd   Thumb Code     4  testbuilder.o(.text)
    WSTMonitor_getTypeSize7()                0x000013d1   Thumb Code     8  testbuilder.o(.text)
    TestBuilder::initRelations()             0x000013d9   Thumb Code    30  testbuilder.o(.text)
    TestBuilder::setTask(WST_TSK*, bool)     0x000013f7   Thumb Code    80  testbuilder.o(.text)
    TestBuilder::TestBuilder(WST_TSK*)       0x00001447   Thumb Code   240  testbuilder.o(.text)
    TestBuilder::TestBuilder__sub_object(WST_TSK*) 0x00001447   Thumb Code     0  testbuilder.o(.text)
    TestBuilder::~TestBuilder()              0x00001537   Thumb Code   122  testbuilder.o(.text)
    TestBuilder::~TestBuilder__sub_object()  0x00001537   Thumb Code     0  testbuilder.o(.text)
    TestBuilder::~TestBuilder__deallocating() 0x000015b1   Thumb Code    22  testbuilder.o(.text)
    TestBuilder::getItsDisplay() const       0x000015c7   Thumb Code     8  testbuilder.o(.text)
    TestBuilder::getItsJoystick() const      0x000015cf   Thumb Code     8  testbuilder.o(.text)
    TestBuilder::getItsLed28() const         0x000015d7   Thumb Code     8  testbuilder.o(.text)
    TestBuilder::getItsLed29() const         0x000015df   Thumb Code     8  testbuilder.o(.text)
    TestBuilder::getItsLed31() const         0x000015e7   Thumb Code     8  testbuilder.o(.text)
    TestBuilder::getItsLedBar() const        0x000015ef   Thumb Code     8  testbuilder.o(.text)
    TestBuilder::getItsRunningIndicatorLed() const 0x000015f7   Thumb Code     8  testbuilder.o(.text)
    TestBuilder::getItsUartController() const 0x000015ff   Thumb Code     8  testbuilder.o(.text)
    TestBuilder::startBehavior()             0x00001607   Thumb Code    88  testbuilder.o(.text)
    TestBuilder::destroy()                   0x0000165f   Thumb Code    68  testbuilder.o(.text)
    UartController::UartController()         0x000016a9   Thumb Code   140  uartcontroller.o(.text)
    UartController::UartController__sub_object() 0x000016a9   Thumb Code     0  uartcontroller.o(.text)
    UartController::~UartController()        0x00001735   Thumb Code    18  uartcontroller.o(.text)
    UartController::~UartController__sub_object() 0x00001735   Thumb Code     0  uartcontroller.o(.text)
    UartController::~UartController__deallocating() 0x00001747   Thumb Code    18  uartcontroller.o(.text)
    UartController::rxChar()                 0x00001759   Thumb Code    22  uartcontroller.o(.text)
    UartController::txChar(char)             0x0000176f   Thumb Code    20  uartcontroller.o(.text)
    WSTMonitor_sendTypeSize()                0x00001799   Thumb Code   106  wstmonitor_sendtypes.o(.text)
    WST_EVT::toBeCancelled(const WST_FSM*, short) 0x00001803   Thumb Code    26  wst_evt.o(.text)
    WST_FSM::WST_FSM()                       0x0000181d   Thumb Code    38  wst_fsm.o(.text)
    WST_FSM::WST_FSM__sub_object()           0x0000181d   Thumb Code     0  wst_fsm.o(.text)
    WST_FSM::cleanUpRelations()              0x00001843   Thumb Code    18  wst_fsm.o(.text)
    WST_FSM::cancelEventsAndTimeouts()       0x00001855   Thumb Code    76  wst_fsm.o(.text)
    WST_FSM::~WST_FSM()                      0x000018a1   Thumb Code    32  wst_fsm.o(.text)
    WST_FSM::~WST_FSM__sub_object()          0x000018a1   Thumb Code     0  wst_fsm.o(.text)
    WST_FSM::~WST_FSM__deallocating()        0x000018c1   Thumb Code    22  wst_fsm.o(.text)
    WST_FSM::cancel(WST_TMR*)                0x000018d7   Thumb Code    44  wst_fsm.o(.text)
    WST_FSM::destroy()                       0x00001903   Thumb Code     2  wst_fsm.o(.text)
    WST_FSM::endBehavior()                   0x00001905   Thumb Code    30  wst_fsm.o(.text)
    WST_FSM::gen(WST_EVT*, bool)             0x00001923   Thumb Code    62  wst_fsm.o(.text)
    WST_FSM::takeEvent(WST_EVT*)             0x00001961   Thumb Code   584  wst_fsm.o(.text)
    WST_FSM::handleSyncEvent(WST_EVT*)       0x00001ba9   Thumb Code   128  wst_fsm.o(.text)
    WST_FSM::popNullTransition()             0x00001c29   Thumb Code    36  wst_fsm.o(.text)
    WST_FSM::pushNullTransition()            0x00001c4d   Thumb Code     8  wst_fsm.o(.text)
    WST_FSM::rootState_entDef()              0x00001c55   Thumb Code     2  wst_fsm.o(.text)
    WST_FSM::cancelTimeout(const WST_TMR*)   0x00001c57   Thumb Code     6  wst_fsm.o(.text)
    WST_FSM::rootState_processEvent()        0x00001c5d   Thumb Code     6  wst_fsm.o(.text)
    WST_FSM::scheduleTimeout(unsigned, char*) 0x00001c63   Thumb Code    28  wst_fsm.o(.text)
    WST_FSM::setShouldDelete(bool)           0x00001c7f   Thumb Code    24  wst_fsm.o(.text)
    WST_FSM::setTask(WST_TSK*, bool)         0x00001c97   Thumb Code    14  wst_fsm.o(.text)
    WST_FSM::startBehavior()                 0x00001ca5   Thumb Code   188  wst_fsm.o(.text)
    WST_FSM::terminate()                     0x00001d61   Thumb Code    30  wst_fsm.o(.text)
    WST_FSM::send(WST_EVT*)                  0x00001d7f   Thumb Code    18  wst_fsm.o(.text)
    WST_FSM::send(WST_EVT*, const void*&)    0x00001d91   Thumb Code    20  wst_fsm.o(.text)
    WST_FSM::handleTrigger(WST_EVT*)         0x00001da5   Thumb Code    32  wst_fsm.o(.text)
    WST_MEM::WST_MEM()                       0x00001dcd   Thumb Code   154  wst_mem.o(.text)
    WST_MEM::WST_MEM__sub_object()           0x00001dcd   Thumb Code     0  wst_mem.o(.text)
    WST_MEM::getMemory(unsigned)             0x00001e67   Thumb Code   348  wst_mem.o(.text)
    WST_MEM::returnMemory(void*)             0x00001fc3   Thumb Code   192  wst_mem.o(.text)
    WST_MEM::reallocMemory(unsigned, unsigned, void*) 0x00002083   Thumb Code    88  wst_mem.o(.text)
    WST_MSQ::WST_MSQ(unsigned short, bool)   0x0000211d   Thumb Code    26  wst_msq.o(.text)
    WST_MSQ::WST_MSQ__sub_object(unsigned short, bool) 0x0000211d   Thumb Code     0  wst_msq.o(.text)
    WST_MSQ::WST_MSQ(unsigned short, void*, bool) 0x00002137   Thumb Code    30  wst_msq.o(.text)
    WST_MSQ::WST_MSQ__sub_object(unsigned short, void*, bool) 0x00002137   Thumb Code     0  wst_msq.o(.text)
    WST_MSQ::~WST_MSQ()                      0x00002155   Thumb Code    14  wst_msq.o(.text)
    WST_MSQ::~WST_MSQ__sub_object()          0x00002155   Thumb Code     0  wst_msq.o(.text)
    WST_MSQ::cancelEvents(WST_FSM*, short)   0x00002163   Thumb Code    20  wst_msq.o(.text)
    WST_MSQ::get()                           0x00002177   Thumb Code    16  wst_msq.o(.text)
    WST_MSQ::isEmpty()                       0x00002187   Thumb Code    20  wst_msq.o(.text)
    WST_MSQ::put(WST_EVT*, bool)             0x0000219b   Thumb Code   172  wst_msq.o(.text)
    WST_MTX::WST_MTX()                       0x00002251   Thumb Code    18  wst_mtx.o(.text)
    WST_MTX::WST_MTX__sub_object()           0x00002251   Thumb Code     0  wst_mtx.o(.text)
    WST_MTX::WST_MTX(const WST_MTX*)         0x00002263   Thumb Code    18  wst_mtx.o(.text)
    WST_MTX::WST_MTX__sub_object(const WST_MTX*) 0x00002263   Thumb Code     0  wst_mtx.o(.text)
    WST_MTX::~WST_MTX()                      0x00002275   Thumb Code    26  wst_mtx.o(.text)
    WST_MTX::~WST_MTX__sub_object()          0x00002275   Thumb Code     0  wst_mtx.o(.text)
    WST_MTX::WST_MTX_enterCriticalRegion()   0x0000228f   Thumb Code    12  wst_mtx.o(.text)
    WST_MTX::WST_MTX_exitCriticalRegion()    0x0000229b   Thumb Code    12  wst_mtx.o(.text)
    WST_MTX::WST_MTX_getRtosMutex()          0x000022a7   Thumb Code     2  wst_mtx.o(.text)
    WST_MTX_inUse::WST_MTX_inUse(const WST_MTX*) 0x000022a9   Thumb Code    54  wst_mtx.o(.text)
    WST_MTX_inUse::WST_MTX_inUse__sub_object(const WST_MTX*) 0x000022a9   Thumb Code     0  wst_mtx.o(.text)
    WST_MTX_inUse::~WST_MTX_inUse()          0x000022df   Thumb Code    22  wst_mtx.o(.text)
    WST_MTX_inUse::~WST_MTX_inUse__sub_object() 0x000022df   Thumb Code     0  wst_mtx.o(.text)
    WST_RXF::WST_RXF()                       0x000022f5   Thumb Code     2  wst_rxf.o(.text)
    WST_RXF::WST_RXF__sub_object()           0x000022f5   Thumb Code     0  wst_rxf.o(.text)
    WST_RXF::~WST_RXF()                      0x000022f7   Thumb Code     2  wst_rxf.o(.text)
    WST_RXF::~WST_RXF__sub_object()          0x000022f7   Thumb Code     0  wst_rxf.o(.text)
    WST_RXF::initialize()                    0x000022f9   Thumb Code    10  wst_rxf.o(.text)
    WST_RXF::start()                         0x00002303   Thumb Code    10  wst_rxf.o(.text)
    WST_TMM::WST_TMM()                       0x00002311   Thumb Code    24  wst_tmm.o(.text)
    WST_TMM::WST_TMM__sub_object()           0x00002311   Thumb Code     0  wst_tmm.o(.text)
    WST_TMM::WSTTimeToTicks(unsigned)        0x00002329   Thumb Code    14  wst_tmm.o(.text)
    WST_TMM::stop(WST_TMR*)                  0x00002337   Thumb Code   110  wst_tmm.o(.text)
    WST_TMM::cancelEvents(WST_FSM*)          0x000023a5   Thumb Code   102  wst_tmm.o(.text)
    WST_TMM::getExpiredTimeout()             0x0000240b   Thumb Code    56  wst_tmm.o(.text)
    WST_TMM::tick(short)                     0x00002443   Thumb Code    82  wst_tmm.o(.text)
    WST_TMM::processTimeouts()               0x00002495   Thumb Code    88  wst_tmm.o(.text)
    WST_TMM::start(unsigned, WST_FSM*)       0x000024ed   Thumb Code   234  wst_tmm.o(.text)
    WST_TMM::initMutex()                     0x000025d7   Thumb Code    24  wst_tmm.o(.text)
    WST_TMR::operator delete (void*)         0x0000260d   Thumb Code    26  wst_tmr.o(.text)
    WST_TMR::operator new(unsigned)          0x00002627   Thumb Code    52  wst_tmr.o(.text)
    WST_TMR::cancel()                        0x0000265b   Thumb Code    18  wst_tmr.o(.text)
    WST_TMR::initTimeoutLists()              0x0000266d   Thumb Code    52  wst_tmr.o(.text)
    WST_TSK::WST_TSK(char*, unsigned char, unsigned short, unsigned short, bool) 0x000026e9   Thumb Code    86  wst_tsk.o(.text)
    WST_TSK::WST_TSK__sub_object(char*, unsigned char, unsigned short, unsigned short, bool) 0x000026e9   Thumb Code     0  wst_tsk.o(.text)
    WST_TSK::WST_TSK(unsigned char*, void*, unsigned char, unsigned short, unsigned short, bool) 0x0000273f   Thumb Code    86  wst_tsk.o(.text)
    WST_TSK::WST_TSK__sub_object(unsigned char*, void*, unsigned char, unsigned short, unsigned short, bool) 0x0000273f   Thumb Code     0  wst_tsk.o(.text)
    WST_TSK::cleanUpRelations()              0x00002795   Thumb Code    40  wst_tsk.o(.text)
    WST_TSK::~WST_TSK()                      0x000027bd   Thumb Code    36  wst_tsk.o(.text)
    WST_TSK::~WST_TSK__sub_object()          0x000027bd   Thumb Code     0  wst_tsk.o(.text)
    WST_TSK::~WST_TSK__deallocating()        0x000027e1   Thumb Code    18  wst_tsk.o(.text)
    WST_TSK::execute()                       0x000027f3   Thumb Code   120  wst_tsk.o(.text)
    WST_TSK::executeOnce()                   0x0000286b   Thumb Code   102  wst_tsk.o(.text)
    WST_TSK::endDispatching()                0x000028d1   Thumb Code    12  wst_tsk.o(.text)
    WST_TSK::task_start(void*)               0x000028dd   Thumb Code     8  wst_tsk.o(.text)
    WST_TSK::startDispatching()              0x000028e5   Thumb Code    12  wst_tsk.o(.text)
    WST_TSK::suspend()                       0x000028f1   Thumb Code    12  wst_tsk.o(.text)
    WST_TSK::resume()                        0x000028fd   Thumb Code    12  wst_tsk.o(.text)
    WST_TSK::startTaskAfterOSStart()         0x00002909   Thumb Code    38  wst_tsk.o(.text)
    WSTMonitor_IO_Init                       0x00002951   Thumb Code    20  wstmonitorio_keil_cortexm3_itm.o(.text)
    WSTMonitor_IO_PutByte                    0x00002965   Thumb Code    30  wstmonitorio_keil_cortexm3_itm.o(.text)
    WSTMonitor_IO_GetByte                    0x00002983   Thumb Code    36  wstmonitorio_keil_cortexm3_itm.o(.text)
    WSTMonitorIO_receiveIncomingData         0x000029a7   Thumb Code    18  wstmonitorio_keil_cortexm3_itm.o(.text)
    GLCD_SetWindow                           0x00002d59   Thumb Code   184  glcd_mcb1700.o(.text)
    GLCD_WindowMax                           0x00002e11   Thumb Code    18  glcd_mcb1700.o(.text)
    GLCD_Initialize                          0x00002e23   Thumb Code  1462  glcd_mcb1700.o(.text)
    GLCD_Uninitialize                        0x000033d9   Thumb Code    30  glcd_mcb1700.o(.text)
    GLCD_SetForegroundColor                  0x000033f7   Thumb Code    10  glcd_mcb1700.o(.text)
    GLCD_SetBackgroundColor                  0x00003401   Thumb Code    10  glcd_mcb1700.o(.text)
    GLCD_ClearScreen                         0x0000340b   Thumb Code    44  glcd_mcb1700.o(.text)
    GLCD_SetFont                             0x00003437   Thumb Code    10  glcd_mcb1700.o(.text)
    GLCD_DrawPixel                           0x00003441   Thumb Code   120  glcd_mcb1700.o(.text)
    GLCD_DrawHLine                           0x000034b9   Thumb Code    56  glcd_mcb1700.o(.text)
    GLCD_DrawVLine                           0x000034f1   Thumb Code    56  glcd_mcb1700.o(.text)
    GLCD_DrawRectangle                       0x00003529   Thumb Code    58  glcd_mcb1700.o(.text)
    GLCD_DrawChar                            0x00003563   Thumb Code   194  glcd_mcb1700.o(.text)
    GLCD_DrawString                          0x00003625   Thumb Code    38  glcd_mcb1700.o(.text)
    GLCD_DrawBargraph                        0x0000364b   Thumb Code   100  glcd_mcb1700.o(.text)
    GLCD_DrawBitmap                          0x000036af   Thumb Code    92  glcd_mcb1700.o(.text)
    GLCD_VScroll                             0x0000370b   Thumb Code     8  glcd_mcb1700.o(.text)
    GLCD_FrameBufferAccess                   0x00003713   Thumb Code     8  glcd_mcb1700.o(.text)
    GLCD_FrameBufferAddress                  0x0000371b   Thumb Code     4  glcd_mcb1700.o(.text)
    os_idle_demon                            0x00003735   Thumb Code     4  rtx_conf_cm.o(.text)
    os_error                                 0x00003739   Thumb Code    26  rtx_conf_cm.o(.text)
    rt_init_robin                            0x00003753   Thumb Code     2  rtx_conf_cm.o(.text)
    rt_chk_robin                             0x00003755   Thumb Code     2  rtx_conf_cm.o(.text)
    __user_perthread_libspace                0x00003757   Thumb Code    32  rtx_conf_cm.o(.text)
    _mutex_initialize                        0x00003777   Thumb Code    34  rtx_conf_cm.o(.text)
    _mutex_acquire                           0x00003799   Thumb Code    22  rtx_conf_cm.o(.text)
    _mutex_release                           0x000037af   Thumb Code    18  rtx_conf_cm.o(.text)
    SSPx_GPDMA_Tx_SignalEvent                0x000044a9   Thumb Code    28  ssp_lpc17xx.o(.text)
    SSPx_GPDMA_Rx_SignalEvent                0x000044c5   Thumb Code    54  ssp_lpc17xx.o(.text)
    SSP1_GPDMA_Tx_SignalEvent                0x00004687   Thumb Code    14  ssp_lpc17xx.o(.text)
    SSP1_GPDMA_Rx_SignalEvent                0x00004695   Thumb Code    14  ssp_lpc17xx.o(.text)
    SSP1_IRQHandler                          0x000046a3   Thumb Code    10  ssp_lpc17xx.o(.text)
    GPDMA_Initialize                         0x000046ff   Thumb Code   146  gpdma_lpc17xx.o(.text)
    GPDMA_Uninitialize                       0x00004791   Thumb Code   116  gpdma_lpc17xx.o(.text)
    GPDMA_PeripheralSelect                   0x00004805   Thumb Code    62  gpdma_lpc17xx.o(.text)
    GPDMA_ChannelConfigure                   0x00004843   Thumb Code   232  gpdma_lpc17xx.o(.text)
    GPDMA_ChannelEnable                      0x0000492b   Thumb Code    54  gpdma_lpc17xx.o(.text)
    GPDMA_ChannelDisable                     0x00004961   Thumb Code    44  gpdma_lpc17xx.o(.text)
    GPDMA_ChannelGetStatus                   0x0000498d   Thumb Code    30  gpdma_lpc17xx.o(.text)
    GPDMA_ChannelGetCount                    0x000049ab   Thumb Code    38  gpdma_lpc17xx.o(.text)
    DMA_IRQHandler                           0x000049d1   Thumb Code   408  gpdma_lpc17xx.o(.text)
    GPIO_PortClock                           0x00004bad   Thumb Code    38  gpio_lpc17xx.o(.text)
    GPIO_SetDir                              0x00004bd3   Thumb Code    52  gpio_lpc17xx.o(.text)
    GPIO_PinWrite                            0x00004c07   Thumb Code    36  gpio_lpc17xx.o(.text)
    GPIO_PinRead                             0x00004c2b   Thumb Code    28  gpio_lpc17xx.o(.text)
    GPIO_PortWrite                           0x00004c47   Thumb Code    26  gpio_lpc17xx.o(.text)
    GPIO_PortRead                            0x00004c61   Thumb Code    14  gpio_lpc17xx.o(.text)
    PIN_Configure                            0x00004c79   Thumb Code   246  pin_lpc17xx.o(.text)
    PIN_ConfigureTPIU                        0x00004d6f   Thumb Code    36  pin_lpc17xx.o(.text)
    PIN_ConfigureI2C0Pins                    0x00004d93   Thumb Code    28  pin_lpc17xx.o(.text)
    Reset_Handler                            0x00004db5   Thumb Code     8  startup_lpc17xx.o(.text)
    NMI_Handler                              0x00004dbd   Thumb Code     2  startup_lpc17xx.o(.text)
    HardFault_Handler                        0x00004dbf   Thumb Code     2  startup_lpc17xx.o(.text)
    MemManage_Handler                        0x00004dc1   Thumb Code     2  startup_lpc17xx.o(.text)
    BusFault_Handler                         0x00004dc3   Thumb Code     2  startup_lpc17xx.o(.text)
    UsageFault_Handler                       0x00004dc5   Thumb Code     2  startup_lpc17xx.o(.text)
    DebugMon_Handler                         0x00004dc9   Thumb Code     2  startup_lpc17xx.o(.text)
    ADC_IRQHandler                           0x00004dcf   Thumb Code     0  startup_lpc17xx.o(.text)
    BOD_IRQHandler                           0x00004dcf   Thumb Code     0  startup_lpc17xx.o(.text)
    CANActivity_IRQHandler                   0x00004dcf   Thumb Code     0  startup_lpc17xx.o(.text)
    CAN_IRQHandler                           0x00004dcf   Thumb Code     0  startup_lpc17xx.o(.text)
    EINT0_IRQHandler                         0x00004dcf   Thumb Code     0  startup_lpc17xx.o(.text)
    EINT1_IRQHandler                         0x00004dcf   Thumb Code     0  startup_lpc17xx.o(.text)
    EINT2_IRQHandler                         0x00004dcf   Thumb Code     0  startup_lpc17xx.o(.text)
    EINT3_IRQHandler                         0x00004dcf   Thumb Code     0  startup_lpc17xx.o(.text)
    ENET_IRQHandler                          0x00004dcf   Thumb Code     0  startup_lpc17xx.o(.text)
    I2C0_IRQHandler                          0x00004dcf   Thumb Code     0  startup_lpc17xx.o(.text)
    I2C1_IRQHandler                          0x00004dcf   Thumb Code     0  startup_lpc17xx.o(.text)
    I2C2_IRQHandler                          0x00004dcf   Thumb Code     0  startup_lpc17xx.o(.text)
    I2S_IRQHandler                           0x00004dcf   Thumb Code     0  startup_lpc17xx.o(.text)
    MCPWM_IRQHandler                         0x00004dcf   Thumb Code     0  startup_lpc17xx.o(.text)
    PLL0_IRQHandler                          0x00004dcf   Thumb Code     0  startup_lpc17xx.o(.text)
    PLL1_IRQHandler                          0x00004dcf   Thumb Code     0  startup_lpc17xx.o(.text)
    PWM1_IRQHandler                          0x00004dcf   Thumb Code     0  startup_lpc17xx.o(.text)
    QEI_IRQHandler                           0x00004dcf   Thumb Code     0  startup_lpc17xx.o(.text)
    RIT_IRQHandler                           0x00004dcf   Thumb Code     0  startup_lpc17xx.o(.text)
    RTC_IRQHandler                           0x00004dcf   Thumb Code     0  startup_lpc17xx.o(.text)
    SPI_IRQHandler                           0x00004dcf   Thumb Code     0  startup_lpc17xx.o(.text)
    SSP0_IRQHandler                          0x00004dcf   Thumb Code     0  startup_lpc17xx.o(.text)
    TIMER0_IRQHandler                        0x00004dcf   Thumb Code     0  startup_lpc17xx.o(.text)
    TIMER1_IRQHandler                        0x00004dcf   Thumb Code     0  startup_lpc17xx.o(.text)
    TIMER2_IRQHandler                        0x00004dcf   Thumb Code     0  startup_lpc17xx.o(.text)
    TIMER3_IRQHandler                        0x00004dcf   Thumb Code     0  startup_lpc17xx.o(.text)
    UART0_IRQHandler                         0x00004dcf   Thumb Code     0  startup_lpc17xx.o(.text)
    UART1_IRQHandler                         0x00004dcf   Thumb Code     0  startup_lpc17xx.o(.text)
    UART2_IRQHandler                         0x00004dcf   Thumb Code     0  startup_lpc17xx.o(.text)
    UART3_IRQHandler                         0x00004dcf   Thumb Code     0  startup_lpc17xx.o(.text)
    USBActivity_IRQHandler                   0x00004dcf   Thumb Code     0  startup_lpc17xx.o(.text)
    USB_IRQHandler                           0x00004dcf   Thumb Code     0  startup_lpc17xx.o(.text)
    WDT_IRQHandler                           0x00004dcf   Thumb Code     0  startup_lpc17xx.o(.text)
    __user_initial_stackheap                 0x00004dd1   Thumb Code     0  startup_lpc17xx.o(.text)
    SystemCoreClockUpdate                    0x00004df5   Thumb Code   408  system_lpc17xx.o(.text)
    SystemInit                               0x00004f8d   Thumb Code   314  system_lpc17xx.o(.text)
    __aeabi_uldivmod                         0x000050e5   Thumb Code     0  lludivv7m.o(.text)
    _ll_udiv                                 0x000050e5   Thumb Code   238  lludivv7m.o(.text)
    __2sprintf                               0x000051d5   Thumb Code    34  noretval__2sprintf.o(.text)
    __printf                                 0x000051fd   Thumb Code   104  __printf.o(.text)
    _printf_str                              0x00005265   Thumb Code    82  _printf_str.o(.text)
    exit                                     0x000052b7   Thumb Code    18  exit.o(.text)
    __aeabi_atexit                           0x000052c9   Thumb Code    46  aeabi_atexit.o(.text)
    __aeabi_memcpy                           0x000052f7   Thumb Code     0  rt_memcpy_v6.o(.text)
    __rt_memcpy                              0x000052f7   Thumb Code   138  rt_memcpy_v6.o(.text)
    _memcpy_lastbytes                        0x0000535d   Thumb Code     0  rt_memcpy_v6.o(.text)
    __aeabi_memcpy4                          0x00005381   Thumb Code     0  rt_memcpy_w.o(.text)
    __aeabi_memcpy8                          0x00005381   Thumb Code     0  rt_memcpy_w.o(.text)
    __rt_memcpy_w                            0x00005381   Thumb Code   100  rt_memcpy_w.o(.text)
    _memcpy_lastbytes_aligned                0x000053c9   Thumb Code     0  rt_memcpy_w.o(.text)
    __aeabi_memclr4                          0x000053e5   Thumb Code     0  rt_memclr_w.o(.text)
    __aeabi_memclr8                          0x000053e5   Thumb Code     0  rt_memclr_w.o(.text)
    __rt_memclr_w                            0x000053e5   Thumb Code    78  rt_memclr_w.o(.text)
    _memset_w                                0x000053e9   Thumb Code     0  rt_memclr_w.o(.text)
    strcmp                                   0x00005435   Thumb Code   128  strcmpv7m.o(.text)
    __cpp_initialize__aeabi_                 0x000054b5   Thumb Code    26  init_aeabi.o(.text)
    __aeabi_vec_dtor                         0x000054d9   Thumb Code    34  aeabi_vec_dtor_noexceptions.o(.text)
    __rt_ddtor_pointer_addr                  0x000054fb   Thumb Code    10  rt_ddtor_pointer_addr_twolibspace.o(.text)
    _malloc_internal                         0x0000550d   Thumb Code   130  h1_alloc_mt.o(.text)
    malloc                                   0x0000558f   Thumb Code    20  h1_alloc_mt.o(.text)
    _free_internal                           0x000055a3   Thumb Code    98  h1_free_mt.o(.text)
    free                                     0x00005605   Thumb Code    20  h1_free_mt.o(.text)
    _printf_char_common                      0x00005623   Thumb Code    32  _printf_char_common.o(.text)
    _sputc                                   0x00005649   Thumb Code    10  _sputc.o(.text)
    _printf_cs_common                        0x00005653   Thumb Code    20  _printf_char.o(.text)
    _printf_char                             0x00005667   Thumb Code    16  _printf_char.o(.text)
    _printf_string                           0x00005677   Thumb Code     8  _printf_char.o(.text)
    __cxa_finalize                           0x0000567f   Thumb Code    66  cxa_finalize.o(.text)
    __rt_heap_descriptor                     0x000056c1   Thumb Code    10  rt_heap_descriptor_twolibspace.o(.text)
    __rt_new_handler_addr                    0x000056cb   Thumb Code    10  rt_new_handler_addr_twolibspace.o(.text)
    __use_no_heap                            0x000056d5   Thumb Code     2  hguard.o(.text)
    __heap$guard                             0x000056d7   Thumb Code     2  hguard.o(.text)
    _terminate_user_alloc                    0x000056d9   Thumb Code     2  init_alloc.o(.text)
    _init_user_alloc                         0x000056db   Thumb Code     2  init_alloc.o(.text)
    __Heap_Full                              0x000056dd   Thumb Code    34  init_alloc.o(.text)
    __Heap_Broken                            0x000056ff   Thumb Code     6  init_alloc.o(.text)
    _init_alloc                              0x00005705   Thumb Code    94  init_alloc.o(.text)
    __Heap_Initialize                        0x00005763   Thumb Code    14  h1_init_mt.o(.text)
    __Heap_DescSize                          0x00005771   Thumb Code     4  h1_init_mt.o(.text)
    __default_new_handler()                  0x00005775   Thumb Code     4  arm_newhandler_noexceptions.o(.text)
    std::terminate()                         0x00005779   Thumb Code    26  arm_exceptions_terminate.o(.text)
    __cxa_get_globals                        0x0000579b   Thumb Code    62  arm_exceptions_globs.o(.text)
    _sys_exit                                0x000057e5   Thumb Code     8  sys_exit.o(.text)
    __user_setup_stackheap                   0x000057f1   Thumb Code    74  sys_stackheap_outer.o(.text)
    __rt_eh_globals_addr                     0x0000583b   Thumb Code    10  rt_eh_globals_addr_twolibspace.o(.text)
    __Heap_ProvideMemory                     0x00005845   Thumb Code    62  h1_extend_mt.o(.text)
    abort                                    0x00005883   Thumb Code    22  abort.o(.text)
    __rt_SIGRTMEM                            0x00005899   Thumb Code    14  defsig_rtmem_outer.o(.text)
    __ARM_exceptions_buffer_init             0x000058a7   Thumb Code    18  arm_exceptions_mem.o(.text)
    __ARM_exceptions_buffer_allocate         0x000058b9   Thumb Code    22  arm_exceptions_mem.o(.text)
    __ARM_exceptions_buffer_free             0x000058cf   Thumb Code    20  arm_exceptions_mem.o(.text)
    __semihosting_library_function           0x000058e3   Thumb Code     0  indicate_semi.o(.text)
    __sig_exit                               0x000058e3   Thumb Code    10  defsig_exit.o(.text)
    __rt_SIGABRT                             0x000058ed   Thumb Code    14  defsig_abrt_outer.o(.text)
    __rt_SIGRTMEM_inner                      0x000058fd   Thumb Code    22  defsig_rtmem_inner.o(.text)
    __default_signal_display                 0x0000594d   Thumb Code    50  defsig_general.o(.text)
    __rt_SIGABRT_inner                       0x00005981   Thumb Code    14  defsig_abrt_inner.o(.text)
    _ttywrch                                 0x000059b1   Thumb Code    14  sys_wrch.o(.text)
    WSTMonitor_sendDataStruct(void*, unsigned short) 0x000059c1   Thumb Code    36  wstmonitor.o(CODE_ANIM_RUNNING_FAST)
    WSTMonitor_sendStateSize()               0x000059e5   Thumb Code    12  wstmonitor.o(CODE_ANIM_RUNNING_FAST)
    WSTMonitor_sendHighwater()               0x000059f1   Thumb Code    24  wstmonitor.o(CODE_ANIM_RUNNING_FAST)
    WSTMonitor_sendVersion()                 0x00005a09   Thumb Code    20  wstmonitor.o(CODE_ANIM_RUNNING_FAST)
    WSTMonitor_resumeRxf()                   0x00005a1d   Thumb Code     8  wstmonitor.o(CODE_ANIM_RUNNING_FAST)
    WSTMonitor_suspendRxf()                  0x00005a25   Thumb Code     8  wstmonitor.o(CODE_ANIM_RUNNING_FAST)
    WSTMonitor_performCmd()                  0x00005a2d   Thumb Code   642  wstmonitor.o(CODE_ANIM_RUNNING_FAST)
    WST_Monitor_receiveTask(void*)           0x00005caf   Thumb Code    22  wstmonitor.o(CODE_ANIM_RUNNING_FAST)
    WST_Monitor_createReceiveTask()          0x00005cc5   Thumb Code    24  wstmonitor.o(CODE_ANIM_RUNNING_FAST)
    WSTMonitor_init()                        0x00005cdd   Thumb Code   132  wstmonitor.o(CODE_ANIM_RUNNING_FAST)
    WSTMonitor_pollIncomingData()            0x00005d61   Thumb Code     8  wstmonitor.o(CODE_ANIM_RUNNING_FAST)
    WSTMonitor_sendInit(void*, unsigned short, void*) 0x00005d69   Thumb Code   232  wstmonitor.o(CODE_ANIM_RUNNING_FAST)
    WSTMonitor_sendDestroy(void*)            0x00005e51   Thumb Code    40  wstmonitor.o(CODE_ANIM_RUNNING_FAST)
    WSTMonitor_sendOpCall(void*, void*, unsigned short, void*, void*) 0x00005e79   Thumb Code   102  wstmonitor.o(CODE_ANIM_RUNNING_FAST)
    WSTMonitor_sendEventCreate(unsigned char*, unsigned char, unsigned char*) 0x00005edf   Thumb Code    68  wstmonitor.o(CODE_ANIM_RUNNING_FAST)
    WSTMonitor_sendEventStart(unsigned char*) 0x00005f23   Thumb Code    50  wstmonitor.o(CODE_ANIM_RUNNING_FAST)
    WSTMonitor_sendEventEnd(unsigned char*)  0x00005f55   Thumb Code    50  wstmonitor.o(CODE_ANIM_RUNNING_FAST)
    WSTMonitor_sendTimeOut(unsigned char*)   0x00005f87   Thumb Code    40  wstmonitor.o(CODE_ANIM_RUNNING_FAST)
    WSTMonitor_sendError()                   0x00005faf   Thumb Code    28  wstmonitor.o(CODE_ANIM_RUNNING_FAST)
    WSTMonitor_sendBufferReset()             0x00005fcb   Thumb Code    28  wstmonitor.o(CODE_ANIM_RUNNING_FAST)
    WST_EVT::WST_EVT()                       0x00006009   Thumb Code    10  defaultpkg.o(CODE_RXF_RUNNING_FAST)
    WST_EVT::WST_EVT__sub_object()           0x00006009   Thumb Code     0  defaultpkg.o(CODE_RXF_RUNNING_FAST)
    WST_EVT::~WST_EVT__deallocating()        0x00006019   Thumb Code    18  defaultpkg.o(CODE_RXF_RUNNING_FAST)
    WST_OSW_TSK_init(WST_TSK*)               0x0000602d   Thumb Code     2  wst_osw.o(CODE_RXF_RUNNING_FAST)
    WST_OSW_TMM_delay(unsigned)              0x0000602f   Thumb Code    12  wst_osw.o(CODE_RXF_RUNNING_FAST)
    WST_OSW_TSK_userInit(void(*)(void*), osPriority, void*, unsigned short, void*) 0x0000603b   Thumb Code    66  wst_osw.o(CODE_RXF_RUNNING_FAST)
    WST_OSW_TSK_cleanup(WST_TSK*)            0x0000607d   Thumb Code    20  wst_osw.o(CODE_RXF_RUNNING_FAST)
    WST_OSW_TSK_start(WST_TSK*)              0x00006091   Thumb Code    90  wst_osw.o(CODE_RXF_RUNNING_FAST)
    WST_OSW_TSK_suspend(WST_TSK*)            0x000060eb   Thumb Code    22  wst_osw.o(CODE_RXF_RUNNING_FAST)
    WST_OSW_TSK_resume(WST_TSK*)             0x00006101   Thumb Code    22  wst_osw.o(CODE_RXF_RUNNING_FAST)
    WST_OSW_TMM_timerCallBack(const void*)   0x00006117   Thumb Code    20  wst_osw.o(CODE_RXF_RUNNING_FAST)
    WST_OSW_MSQ_cancelEvents(WST_MSQ*, const WST_FSM*, short) 0x0000612b   Thumb Code   346  wst_osw.o(CODE_RXF_RUNNING_FAST)
    WST_OSW_MSQ_getCount(WST_MSQ*)           0x00006285   Thumb Code    24  wst_osw.o(CODE_RXF_RUNNING_FAST)
    WST_OSW_MSQ_get(WST_MSQ*, WST_EVT**)     0x0000629d   Thumb Code    60  wst_osw.o(CODE_RXF_RUNNING_FAST)
    WST_OSW_MTX_exitCriticalRegion(WST_MTX*) 0x000062d9   Thumb Code    40  wst_osw.o(CODE_RXF_RUNNING_FAST)
    WST_OSW_MTX_enterCriticalRegion(WST_MTX*) 0x00006301   Thumb Code    44  wst_osw.o(CODE_RXF_RUNNING_FAST)
    WST_OSW_MEM_malloc(unsigned)             0x0000632d   Thumb Code    72  wst_osw.o(CODE_RXF_RUNNING_FAST)
    WST_OSW_MEM_free(void*)                  0x00006375   Thumb Code    28  wst_osw.o(CODE_RXF_RUNNING_FAST)
    WST_OSW_TMM_initTimerTask()              0x00006391   Thumb Code    86  wst_osw.o(CODE_RXF_RUNNING_FAST)
    WST_OSW_MSQ_init(WST_MSQ*)               0x000063e7   Thumb Code   152  wst_osw.o(CODE_RXF_RUNNING_FAST)
    WST_OSW_MSQ_cleanup(WST_MSQ*)            0x0000647f   Thumb Code    18  wst_osw.o(CODE_RXF_RUNNING_FAST)
    WST_OSW_MSQ_put(WST_MSQ*, WST_EVT*, bool) 0x00006491   Thumb Code    62  wst_osw.o(CODE_RXF_RUNNING_FAST)
    WST_OSW_MTX_init(WST_MTX*)               0x000064cf   Thumb Code    76  wst_osw.o(CODE_RXF_RUNNING_FAST)
    WST_OSW_MTX_cleanup(WST_MTX*)            0x0000651b   Thumb Code    40  wst_osw.o(CODE_RXF_RUNNING_FAST)
    WSTRTOS_Init()                           0x00006545   Thumb Code   130  wstrtos.o(CODE_RXF_RUNNING_FAST)
    WSTRTOS_Cleanup()                        0x000065c7   Thumb Code     2  wstrtos.o(CODE_RXF_RUNNING_FAST)
    WSTRTOS_incrementRxfTicks()              0x000065c9   Thumb Code    12  wstrtos.o(CODE_RXF_RUNNING_FAST)
    WSTRTOS_getRxfTicks()                    0x000065d5   Thumb Code     6  wstrtos.o(CODE_RXF_RUNNING_FAST)
    WSTTarget_enterCriticalRegion            0x000065f1   Thumb Code     4  wsttarget.o(CODE_RXF_RUNNING_FAST)
    WSTTarget_exitCriticalRegion             0x000065f5   Thumb Code     4  wsttarget.o(CODE_RXF_RUNNING_FAST)
    WSTTarget_Init                           0x000065f9   Thumb Code     8  wsttarget.o(CODE_RXF_RUNNING_FAST)
    WSTTarget_Cleanup                        0x00006601   Thumb Code     2  wsttarget.o(CODE_RXF_RUNNING_FAST)
    os_def_interrupt()                       0x00006603   Thumb Code     2  wsttarget.o(CODE_RXF_RUNNING_FAST)
    WSTTarget_isInISR                        0x00006605   Thumb Code    16  wsttarget.o(CODE_RXF_RUNNING_FAST)
    SVC_Count                                0x00006614   Data           4  svc_table.o(SVC_TABLE)
    SVC_Table                                0x00006618   Data           0  svc_table.o(SVC_TABLE)
    evReceivedData::~evReceivedData__deallocating() 0x00006619   Thumb Code    22  defaultpkg.o(i._ZN14evReceivedDataD0Ev)
    evReceivedData::~evReceivedData()        0x0000662f   Thumb Code     4  defaultpkg.o(i._ZN14evReceivedDataD1Ev)
    evReceivedData::~evReceivedData__sub_object() 0x0000662f   Thumb Code     0  defaultpkg.o(i._ZN14evReceivedDataD1Ev)
    evNewJoystickPosition::~evNewJoystickPosition__deallocating() 0x00006633   Thumb Code    22  defaultpkg.o(i._ZN21evNewJoystickPositionD0Ev)
    evNewJoystickPosition::~evNewJoystickPosition() 0x00006649   Thumb Code     4  defaultpkg.o(i._ZN21evNewJoystickPositionD1Ev)
    evNewJoystickPosition::~evNewJoystickPosition__sub_object() 0x00006649   Thumb Code     0  defaultpkg.o(i._ZN21evNewJoystickPositionD1Ev)
    evOn::~evOn__deallocating()              0x0000664d   Thumb Code    22  defaultpkg.o(i._ZN4evOnD0Ev)
    evOn::~evOn()                            0x00006663   Thumb Code     4  defaultpkg.o(i._ZN4evOnD1Ev)
    evOn::~evOn__sub_object()                0x00006663   Thumb Code     0  defaultpkg.o(i._ZN4evOnD1Ev)
    evOff::~evOff__deallocating()            0x00006667   Thumb Code    22  defaultpkg.o(i._ZN5evOffD0Ev)
    evOff::~evOff()                          0x0000667d   Thumb Code     4  defaultpkg.o(i._ZN5evOffD1Ev)
    evOff::~evOff__sub_object()              0x0000667d   Thumb Code     0  defaultpkg.o(i._ZN5evOffD1Ev)
    WST_TMR::WST_TMR()                       0x00006681   Thumb Code    16  wst_tmr.o(i._ZN7WST_TMRC1Ev)
    WST_TMR::WST_TMR__sub_object()           0x00006681   Thumb Code     0  wst_tmr.o(i._ZN7WST_TMRC1Ev)
    WST_TMR::~WST_TMR__deallocating()        0x00006699   Thumb Code    18  wst_tmm.o(i._ZN7WST_TMRD0Ev)
    WST_TMR::~WST_TMR()                      0x000066ab   Thumb Code     8  wst_tmm.o(i._ZN7WST_TMRD1Ev)
    WST_TMR::~WST_TMR__sub_object()          0x000066ab   Thumb Code     0  wst_tmm.o(i._ZN7WST_TMRD1Ev)
    evBlink::~evBlink__deallocating()        0x000066b3   Thumb Code    22  defaultpkg.o(i._ZN7evBlinkD0Ev)
    evBlink::~evBlink()                      0x000066c9   Thumb Code     4  defaultpkg.o(i._ZN7evBlinkD1Ev)
    evBlink::~evBlink__sub_object()          0x000066c9   Thumb Code     0  defaultpkg.o(i._ZN7evBlinkD1Ev)
    evToggle::~evToggle__deallocating()      0x000066cd   Thumb Code    22  defaultpkg.o(i._ZN8evToggleD0Ev)
    evToggle::~evToggle()                    0x000066e3   Thumb Code     4  defaultpkg.o(i._ZN8evToggleD1Ev)
    evToggle::~evToggle__sub_object()        0x000066e3   Thumb Code     0  defaultpkg.o(i._ZN8evToggleD1Ev)
    operator delete (void*)                  0x000066e7   Thumb Code     8  delete.o(i._ZdlPv)
    operator new[] (unsigned)                0x000066ef   Thumb Code     8  array_new.o(i._Znaj)
    operator new(unsigned)                   0x000066f9   Thumb Code    34  new.o(i._Znwj)
    __aeabi_vec_ctor_nocookie_nodtor         0x00006721   Thumb Code    36  aeabi_vec_ctor_nocookie_nodtor.o(i.__aeabi_vec_ctor_nocookie_nodtor)
    __cxa_guard_acquire                      0x00006745   Thumb Code    16  cxa_guard_acquire.o(i.__cxa_guard_acquire)
    _init_box                                0x00006755   Thumb Code    70  rt_membox.o(i._init_box)
    dbg_init                                 0x0000679d   Thumb Code    34  hal_cm.o(i.dbg_init)
    dbg_task_notify                          0x000067cd   Thumb Code    32  hal_cm.o(i.dbg_task_notify)
    dbg_task_switch                          0x000067ed   Thumb Code    16  hal_cm.o(i.dbg_task_switch)
    isrMessageGet                            0x000067fd   Thumb Code    42  rt_cmsis.o(i.isrMessageGet)
    isrMessagePut                            0x00006827   Thumb Code    44  rt_cmsis.o(i.isrMessagePut)
    isr_mbx_receive                          0x00006855   Thumb Code    86  rt_mailbox.o(i.isr_mbx_receive)
    isr_mbx_send                             0x000068ab   Thumb Code    14  rt_mailbox.o(i.isr_mbx_send)
    osDelay                                  0x000068b9   Thumb Code    18  rt_cmsis.o(i.osDelay)
    osKernelInitialize                       0x000068d1   Thumb Code    30  rt_cmsis.o(i.osKernelInitialize)
    osKernelRunning                          0x000068f5   Thumb Code    28  rt_cmsis.o(i.osKernelRunning)
    osKernelStart                            0x00006919   Thumb Code    98  rt_cmsis.o(i.osKernelStart)
    osMessageCreate                          0x00006985   Thumb Code    36  rt_cmsis.o(i.osMessageCreate)
    osMessageGet                             0x000069b1   Thumb Code    18  rt_cmsis.o(i.osMessageGet)
    osMessagePut                             0x000069c9   Thumb Code    18  rt_cmsis.o(i.osMessagePut)
    osMutexCreate                            0x000069e1   Thumb Code    36  rt_cmsis.o(i.osMutexCreate)
    osMutexDelete                            0x00006a0d   Thumb Code    18  rt_cmsis.o(i.osMutexDelete)
    osMutexRelease                           0x00006a25   Thumb Code    18  rt_cmsis.o(i.osMutexRelease)
    osMutexWait                              0x00006a3d   Thumb Code    18  rt_cmsis.o(i.osMutexWait)
    osThreadCreate                           0x00006a55   Thumb Code    36  rt_cmsis.o(i.osThreadCreate)
    osThreadExit                             0x00006a81   Thumb Code    14  rt_cmsis.o(i.osThreadExit)
    osThreadGetId                            0x00006a99   Thumb Code    18  rt_cmsis.o(i.osThreadGetId)
    osThreadTerminate                        0x00006ab1   Thumb Code    18  rt_cmsis.o(i.osThreadTerminate)
    osTimerCall                              0x00006ac9   Thumb Code     8  rt_cmsis.o(i.osTimerCall)
    osTimerCreate                            0x00006ad5   Thumb Code    36  rt_cmsis.o(i.osTimerCreate)
    osTimerStart                             0x00006b01   Thumb Code    18  rt_cmsis.o(i.osTimerStart)
    osTimerThread                            0x00006b19   Thumb Code    38  rt_cmsis.o(i.osTimerThread)
    os_tick_init                             0x00006b45   Thumb Code    32  rt_system.o(i.os_tick_init)
    os_tick_irqack                           0x00006b6d   Thumb Code     2  rt_system.o(i.os_tick_irqack)
    rt_alloc_box                             0x00006b6f   Thumb Code    26  rt_membox.o(i.rt_alloc_box)
    rt_alloc_mem                             0x00006b89   Thumb Code    62  rt_memory.o(i.rt_alloc_mem)
    rt_block                                 0x00006bc9   Thumb Code    48  rt_task.o(i.rt_block)
    rt_dec_dly                               0x00006c01   Thumb Code   102  rt_list.o(i.rt_dec_dly)
    rt_dispatch                              0x00006c71   Thumb Code    60  rt_task.o(i.rt_dispatch)
    rt_dly_wait                              0x00006cb5   Thumb Code     6  rt_time.o(i.rt_dly_wait)
    rt_evt_psh                               0x00006cbd   Thumb Code    76  rt_event.o(i.rt_evt_psh)
    rt_free_box                              0x00006d0d   Thumb Code    44  rt_membox.o(i.rt_free_box)
    rt_free_mem                              0x00006d39   Thumb Code    40  rt_memory.o(i.rt_free_mem)
    rt_get_first                             0x00006d61   Thumb Code    40  rt_list.o(i.rt_get_first)
    rt_init_mem                              0x00006dd9   Thumb Code    26  rt_memory.o(i.rt_init_mem)
    rt_init_stack                            0x00006df5   Thumb Code   118  hal_cm.o(i.rt_init_stack)
    rt_mbx_check                             0x00006e75   Thumb Code     8  rt_mailbox.o(i.rt_mbx_check)
    rt_mbx_init                              0x00006e7d   Thumb Code    26  rt_mailbox.o(i.rt_mbx_init)
    rt_mbx_psh                               0x00006e99   Thumb Code   236  rt_mailbox.o(i.rt_mbx_psh)
    rt_mbx_send                              0x00006f89   Thumb Code   148  rt_mailbox.o(i.rt_mbx_send)
    rt_mbx_wait                              0x00007021   Thumb Code   174  rt_mailbox.o(i.rt_mbx_wait)
    rt_mut_delete                            0x00007119   Thumb Code   168  rt_mutex.o(i.rt_mut_delete)
    rt_mut_init                              0x000071c9   Thumb Code    16  rt_mutex.o(i.rt_mut_init)
    rt_mut_release                           0x000071d9   Thumb Code   208  rt_mutex.o(i.rt_mut_release)
    rt_mut_wait                              0x000072b1   Thumb Code   114  rt_mutex.o(i.rt_mut_wait)
    rt_pop_req                               0x00007329   Thumb Code   112  rt_system.o(i.rt_pop_req)
    rt_psh_req                               0x000073a5   Thumb Code    22  rt_system.o(i.rt_psh_req)
    rt_psq_enq                               0x000073c5   Thumb Code    88  rt_list.o(i.rt_psq_enq)
    rt_put_dly                               0x00007421   Thumb Code    68  rt_list.o(i.rt_put_dly)
    rt_put_prio                              0x00007469   Thumb Code    54  rt_list.o(i.rt_put_prio)
    rt_put_rdy_first                         0x000074a1   Thumb Code    14  rt_list.o(i.rt_put_rdy_first)
    rt_resort_prio                           0x000074b5   Thumb Code    46  rt_list.o(i.rt_resort_prio)
    rt_ret_val                               0x000074e9   Thumb Code     6  hal_cm.o(i.rt_ret_val)
    rt_ret_val2                              0x000074ef   Thumb Code     8  hal_cm.o(i.rt_ret_val2)
    rt_rmv_dly                               0x000074f7   Thumb Code    40  rt_list.o(i.rt_rmv_dly)
    rt_rmv_list                              0x00007521   Thumb Code    44  rt_list.o(i.rt_rmv_list)
    rt_sem_psh                               0x00007551   Thumb Code    48  rt_semaphore.o(i.rt_sem_psh)
    rt_stk_check                             0x00007585   Thumb Code    28  rt_system.o(i.rt_stk_check)
    rt_switch_req                            0x000075a9   Thumb Code    30  rt_task.o(i.rt_switch_req)
    rt_sys_init                              0x000075d1   Thumb Code   138  rt_task.o(i.rt_sys_init)
    rt_sys_start                             0x0000769d   Thumb Code   110  rt_task.o(i.rt_sys_start)
    rt_systick                               0x00007715   Thumb Code    50  rt_system.o(i.rt_systick)
    rt_tsk_create                            0x000077d9   Thumb Code   118  rt_task.o(i.rt_tsk_create)
    rt_tsk_delete                            0x00007861   Thumb Code   352  rt_task.o(i.rt_tsk_delete)
    rt_tsk_prio                              0x000079dd   Thumb Code   108  rt_task.o(i.rt_tsk_prio)
    rt_tsk_self                              0x00007a59   Thumb Code    12  rt_task.o(i.rt_tsk_self)
    svcDelay                                 0x00007a69   Thumb Code    18  rt_cmsis.o(i.svcDelay)
    svcKernelInitialize                      0x00007a7d   Thumb Code    80  rt_cmsis.o(i.svcKernelInitialize)
    svcKernelRunning                         0x00007aed   Thumb Code     6  rt_cmsis.o(i.svcKernelRunning)
    svcKernelStart                           0x00007af9   Thumb Code    62  rt_cmsis.o(i.svcKernelStart)
    svcMessageCreate                         0x00007b41   Thumb Code    36  rt_cmsis.o(i.svcMessageCreate)
    svcMessageGet                            0x00007b65   Thumb Code    58  rt_cmsis.o(i.svcMessageGet)
    svcMessagePut                            0x00007b9f   Thumb Code    54  rt_cmsis.o(i.svcMessagePut)
    svcMutexCreate                           0x00007bd5   Thumb Code    28  rt_cmsis.o(i.svcMutexCreate)
    svcMutexDelete                           0x00007bf1   Thumb Code    26  rt_cmsis.o(i.svcMutexDelete)
    svcMutexRelease                          0x00007c0b   Thumb Code    34  rt_cmsis.o(i.svcMutexRelease)
    svcMutexWait                             0x00007c2d   Thumb Code    58  rt_cmsis.o(i.svcMutexWait)
    svcThreadCreate                          0x00007c69   Thumb Code    96  rt_cmsis.o(i.svcThreadCreate)
    svcThreadGetId                           0x00007cd5   Thumb Code    22  rt_cmsis.o(i.svcThreadGetId)
    svcThreadTerminate                       0x00007cf1   Thumb Code    50  rt_cmsis.o(i.svcThreadTerminate)
    svcTimerCall                             0x00007d29   Thumb Code    24  rt_cmsis.o(i.svcTimerCall)
    svcTimerCreate                           0x00007d41   Thumb Code    52  rt_cmsis.o(i.svcTimerCreate)
    svcTimerStart                            0x00007d79   Thumb Code    96  rt_cmsis.o(i.svcTimerStart)
    sysTimerTick                             0x00007ddd   Thumb Code    84  rt_cmsis.o(i.sysTimerTick)
    GLCD_Font_6x8                            0x000096b8   Data          16  glcd_fonts.o(.constdata)
    GLCD_Font_16x24                          0x000096c8   Data          16  glcd_fonts.o(.constdata)
    os_maxtaskrun                            0x000096d8   Data           2  rtx_conf_cm.o(.constdata)
    os_stackinfo                             0x000096dc   Data           4  rtx_conf_cm.o(.constdata)
    os_rrobin                                0x000096e0   Data           4  rtx_conf_cm.o(.constdata)
    os_tickfreq                              0x000096e4   Data           4  rtx_conf_cm.o(.constdata)
    os_tickus_i                              0x000096e8   Data           2  rtx_conf_cm.o(.constdata)
    os_tickus_f                              0x000096ea   Data           2  rtx_conf_cm.o(.constdata)
    os_trv                                   0x000096ec   Data           4  rtx_conf_cm.o(.constdata)
    os_flags                                 0x000096f0   Data           1  rtx_conf_cm.o(.constdata)
    CMSIS_RTOS_API_Version                   0x000096f4   Data           4  rtx_conf_cm.o(.constdata)
    CMSIS_RTOS_RTX_Version                   0x000096f8   Data           4  rtx_conf_cm.o(.constdata)
    os_clockrate                             0x000096fc   Data           4  rtx_conf_cm.o(.constdata)
    os_timernum                              0x00009700   Data           4  rtx_conf_cm.o(.constdata)
    mp_tcb_size                              0x00009704   Data           2  rtx_conf_cm.o(.constdata)
    mp_stk_size                              0x00009708   Data           4  rtx_conf_cm.o(.constdata)
    os_stack_sz                              0x0000970c   Data           4  rtx_conf_cm.o(.constdata)
    os_fifo_size                             0x00009710   Data           1  rtx_conf_cm.o(.constdata)
    os_thread_def_osTimerThread              0x00009714   Data          16  rtx_conf_cm.o(.constdata)
    os_messageQ_def_osTimerMessageQ          0x00009724   Data           8  rtx_conf_cm.o(.constdata)
    mp_tmr_size                              0x0000972c   Data           2  rtx_conf_cm.o(.constdata)
    os_thread_def_main                       0x00009730   Data          16  rtx_conf_cm.o(.constdata)
    Driver_SPI1                              0x00009790   Data          44  ssp_lpc17xx.o(.constdata)
    vtable for TestBuilder                   0x000097bc   Data          44  testbuilder.o(.constdata__ZTV11TestBuilder)
    vtable for UartController                0x000097e8   Data          16  uartcontroller.o(.constdata__ZTV14UartController)
    vtable for evReceivedData                0x000097f8   Data          20  defaultpkg.o(.constdata__ZTV14evReceivedData)
    vtable for RunningIndicatorLed           0x0000980c   Data          68  runningindicatorled.o(.constdata__ZTV19RunningIndicatorLed)
    vtable for evNewJoystickPosition         0x00009850   Data          20  defaultpkg.o(.constdata__ZTV21evNewJoystickPosition)
    vtable for Led                           0x00009864   Data          40  led.o(.constdata__ZTV3Led)
    vtable for evOn                          0x0000988c   Data          20  defaultpkg.o(.constdata__ZTV4evOn)
    vtable for evOff                         0x000098a0   Data          20  defaultpkg.o(.constdata__ZTV5evOff)
    vtable for LedBar                        0x000098b4   Data          44  ledbar.o(.constdata__ZTV6LedBar)
    vtable for Display                       0x000098e0   Data          40  display.o(.constdata__ZTV7Display)
    vtable for WST_EVT                       0x00009908   Data          16  defaultpkg.o(.constdata__ZTV7WST_EVT)
    vtable for WST_FSM                       0x00009918   Data          36  wst_fsm.o(.constdata__ZTV7WST_FSM)
    vtable for WST_TMR                       0x0000993c   Data          16  wst_tmm.o(.constdata__ZTV7WST_TMR)
    vtable for WST_TSK                       0x0000994c   Data          16  wst_tsk.o(.constdata__ZTV7WST_TSK)
    vtable for evBlink                       0x0000995c   Data          20  defaultpkg.o(.constdata__ZTV7evBlink)
    vtable for Joystick                      0x00009970   Data          68  joystick.o(.constdata__ZTV8Joystick)
    vtable for evToggle                      0x000099b4   Data          20  defaultpkg.o(.constdata__ZTV8evToggle)
    Region$$Table$$Base                      0x000099c8   Number         0  anon$$obj.o(Region$$Table)
    Region$$Table$$Limit                     0x000099f8   Number         0  anon$$obj.o(Region$$Table)
    SHT$$INIT_ARRAY$$Base                    0x000099f8   Number         0  wst_tmm.o(.init_array)
    SHT$$INIT_ARRAY$$Limit                   0x00009a04   Number         0  init_aeabi.o(.init_array)
    mp_tcb                                   0x10000000   Data         532  rtx_conf_cm.o(.bss)
    mp_stk                                   0x10000218   Data         816  rtx_conf_cm.o(.bss)
    os_stack_mem                             0x10000548   Data        6928  rtx_conf_cm.o(.bss)
    os_fifo                                  0x10002058   Data         132  rtx_conf_cm.o(.bss)
    os_active_TCB                            0x100020dc   Data          40  rtx_conf_cm.o(.bss)
    os_messageQ_q_osTimerMessageQ            0x10002104   Data          32  rtx_conf_cm.o(.bss)
    WST_CFG_Highwater::smallBuffersMax       0x2007c000   Data           2  wst_cfg_highwater.o(.data)
    WST_CFG_Highwater::mediumBuffersMax      0x2007c002   Data           2  wst_cfg_highwater.o(.data)
    WST_CFG_Highwater::largeBuffersMax       0x2007c004   Data           2  wst_cfg_highwater.o(.data)
    WST_CFG_Highwater::timeoutsMax           0x2007c006   Data           2  wst_cfg_highwater.o(.data)
    WST_CFG_Highwater::bufferOverflow        0x2007c008   Data           2  wst_cfg_highwater.o(.data)
    myInstance                               0x2007c00c   Data           4  wst_mem.o(.data)
    startSmall                               0x2007c010   Data           2  wst_mem.o(.data)
    smallCounter                             0x2007c012   Data           2  wst_mem.o(.data)
    startMedium                              0x2007c014   Data           2  wst_mem.o(.data)
    mediumCounter                            0x2007c016   Data           2  wst_mem.o(.data)
    startLarge                               0x2007c018   Data           2  wst_mem.o(.data)
    largeCounter                             0x2007c01a   Data           2  wst_mem.o(.data)
    itsFreeList                              0x2007c02c   Data           4  wst_tmr.o(.data)
    WST_TSK::initList                        0x2007c030   Data           4  wst_tsk.o(.data)
    WST_TSK::OS_Started                      0x2007c034   Data           1  wst_tsk.o(.data)
    ITM_RxBuffer                             0x2007c060   Data           4  wstmonitorio_keil_cortexm3_itm.o(.data)
    osThreadId_osTimerThread                 0x2007c078   Data           4  rtx_conf_cm.o(.data)
    osMessageQId_osTimerMessageQ             0x2007c07c   Data           4  rtx_conf_cm.o(.data)
    os_tmr                                   0x2007c080   Data           4  rtx_conf_cm.o(.data)
    m_tmr                                    0x2007c084   Data           4  rtx_conf_cm.o(.data)
    SystemCoreClock                          0x2007c0a4   Data           4  system_lpc17xx.o(.data)
    os_initialized                           0x2007c0a8   Data           1  rt_cmsis.o(.data)
    os_running                               0x2007c0a9   Data           1  rt_cmsis.o(.data)
    os_timer_head                            0x2007c0ac   Data           4  rt_cmsis.o(.data)
    os_tsk                                   0x2007c0b0   Data           8  rt_task.o(.data)
    os_tick_irqn                             0x2007c0bc   Data           4  rt_system.o(.data)
    os_time                                  0x2007c0c0   Data           4  rt_time.o(.data)
    dbg_msg                                  0x2007c0c4   Data           1  hal_cm.o(.data)
    monitorStopFlag                          0x2007c0c8   Data           1  wstmonitor.o(DATA_ANIM_RUNNING_UNSPECIFIED_NOINIT_FAST)
    WSTmonitorBytesAvailable                 0x2007c0ca   Data           2  wstmonitor.o(DATA_ANIM_RUNNING_UNSPECIFIED_NOINIT_FAST)
    monitorSendOff                           0x2007c0cc   Data           1  wstmonitor.o(DATA_ANIM_RUNNING_UNSPECIFIED_NOINIT_FAST)
    monitorTimeoutEnableFlag                 0x2007c0cd   Data           1  wstmonitor.o(DATA_ANIM_RUNNING_UNSPECIFIED_NOINIT_FAST)
    firstBreakPoint                          0x2007c0d0   Data           4  wstmonitor.o(DATA_ANIM_RUNNING_UNSPECIFIED_NOINIT_FAST)
    monitorInit                              0x2007c0d4   Data           1  wstmonitor.o(DATA_ANIM_RUNNING_UNSPECIFIED_NOINIT_FAST)
    initDataStart                            0x2007c0d8   Data           4  wstmonitor.o(DATA_ANIM_RUNNING_UNSPECIFIED_NOINIT_FAST)
    initDataEnd                              0x2007c0dc   Data           4  wstmonitor.o(DATA_ANIM_RUNNING_UNSPECIFIED_NOINIT_FAST)
    WSTMonitorEventID                        0x2007c0e0   Data           4  wstmonitor.o(DATA_ANIM_RUNNING_UNSPECIFIED_NOINIT_FAST)
    monitorNbCmd                             0x2007c0e4   Data           1  wstmonitor.o(DATA_ANIM_RUNNING_UNSPECIFIED_NOINIT_FAST)
    monitorMutex                             0x2007c0e8   Data           4  wstmonitor.o(DATA_ANIM_RUNNING_UNSPECIFIED_NOINIT_FAST)
    memoryMutex                              0x2007c0f0   Data           4  wst_osw.o(DATA_RXF_RUNNING_UNSPECIFIED_NOINIT_FAST)
    mutexInitialized                         0x2007c0f4   Data           1  wst_osw.o(DATA_RXF_RUNNING_UNSPECIFIED_NOINIT_FAST)
    smallBuffers                             0x2007c0f8   Data         240  wst_mem.o(.bss)
    mediumBuffers                            0x2007c1e8   Data         216  wst_mem.o(.bss)
    largeBuffers                             0x2007c2c0   Data         200  wst_mem.o(.bss)
    wstMonitorTask                           0x2007c388   Data          20  wst_osw.o(.bss)
    wstTimerMngr                             0x2007c39c   Data          36  wst_osw.o(.bss)
    WST_TMM::inst                            0x2007c3d4   Data          16  wst_tmm.o(.bss)
    itsWST_TMR                               0x2007c3e4   Data        1280  wst_tmr.o(.bss)
    WSTReceiveTaskStackmem                   0x2007c8e4   Data         512  wstmonitor.o(.bss)
    monitorBuffer                            0x2007cae4   Data          32  wstmonitor.o(.bss)
    showedObject                             0x2007cb04   Data          32  wstmonitor.o(.bss)
    theMainTask                              0x2007cb24   Data          64  wstrtos.o(.bss)
    os_idle_TCB                              0x2007cc2c   Data          52  rt_task.o(.bss)
    os_rdy                                   0x2007cc60   Data          24  rt_list.o(.bss)
    os_dly                                   0x2007cc78   Data          24  rt_list.o(.bss)
    __libspace_start                         0x2007cc90   Data          96  libspace.o(.bss)
    __temporary_stack_top$libspace           0x2007ccf0   Data           0  libspace.o(.bss)



==============================================================================

Memory Map of the image

  Image Entry point : 0x000000cd

  Load Region LR_IROM1 (Base: 0x00000000, Size: 0x00009afc, Max: 0x00040000, ABSOLUTE)

    Execution Region ER_IROM1 (Base: 0x00000000, Size: 0x00009a04, Max: 0x00040000, ABSOLUTE)

    Base Addr    Size         Type   Attr      Idx    E Section Name        Object

    0x00000000   0x000000cc   Data   RO         1962    RESET               startup_lpc17xx.o
    0x000000cc   0x00000008   Code   RO         3267  * !!!main             c_w.l(__main.o)
    0x000000d4   0x00000034   Code   RO         3796    !!!scatter          c_w.l(__scatter.o)
    0x00000108   0x0000001a   Code   RO         3798    !!handler_copy      c_w.l(__scatter_copy.o)
    0x00000122   0x00000002   PAD
    0x00000124   0x0000001c   Code   RO         3800    !!handler_zi        c_w.l(__scatter_zi.o)
    0x00000140   0x00000000   Code   RO         3246    .ARM.Collect$$_printf_percent$$00000000  c_w.l(_printf_percent.o)
    0x00000140   0x00000006   Code   RO         3245    .ARM.Collect$$_printf_percent$$00000014  c_w.l(_printf_s.o)
    0x00000146   0x00000004   Code   RO         3484    .ARM.Collect$$_printf_percent$$00000017  c_w.l(_printf_percent_end.o)
    0x0000014a   0x00000002   Code   RO         3734    .ARM.Collect$$libinit$$00000000  c_w.l(libinit.o)
    0x0000014c   0x00000000   Code   RO         3489    .ARM.Collect$$libinit$$00000002  c_w.l(libinit2.o)
    0x0000014c   0x00000000   Code   RO         3491    .ARM.Collect$$libinit$$00000004  c_w.l(libinit2.o)
    0x0000014c   0x00000008   Code   RO         3492    .ARM.Collect$$libinit$$00000005  c_w.l(libinit2.o)
    0x00000154   0x00000000   Code   RO         3494    .ARM.Collect$$libinit$$0000000A  c_w.l(libinit2.o)
    0x00000154   0x00000000   Code   RO         3496    .ARM.Collect$$libinit$$0000000C  c_w.l(libinit2.o)
    0x00000154   0x00000000   Code   RO         3498    .ARM.Collect$$libinit$$0000000E  c_w.l(libinit2.o)
    0x00000154   0x00000000   Code   RO         3501    .ARM.Collect$$libinit$$00000011  c_w.l(libinit2.o)
    0x00000154   0x00000000   Code   RO         3503    .ARM.Collect$$libinit$$00000013  c_w.l(libinit2.o)
    0x00000154   0x00000000   Code   RO         3505    .ARM.Collect$$libinit$$00000015  c_w.l(libinit2.o)
    0x00000154   0x00000000   Code   RO         3507    .ARM.Collect$$libinit$$00000017  c_w.l(libinit2.o)
    0x00000154   0x00000000   Code   RO         3509    .ARM.Collect$$libinit$$00000019  c_w.l(libinit2.o)
    0x00000154   0x00000000   Code   RO         3511    .ARM.Collect$$libinit$$0000001B  c_w.l(libinit2.o)
    0x00000154   0x00000000   Code   RO         3513    .ARM.Collect$$libinit$$0000001D  c_w.l(libinit2.o)
    0x00000154   0x00000000   Code   RO         3515    .ARM.Collect$$libinit$$0000001F  c_w.l(libinit2.o)
    0x00000154   0x00000000   Code   RO         3517    .ARM.Collect$$libinit$$00000021  c_w.l(libinit2.o)
    0x00000154   0x00000000   Code   RO         3519    .ARM.Collect$$libinit$$00000023  c_w.l(libinit2.o)
    0x00000154   0x00000000   Code   RO         3521    .ARM.Collect$$libinit$$00000025  c_w.l(libinit2.o)
    0x00000154   0x00000000   Code   RO         3525    .ARM.Collect$$libinit$$0000002C  c_w.l(libinit2.o)
    0x00000154   0x00000000   Code   RO         3527    .ARM.Collect$$libinit$$0000002E  c_w.l(libinit2.o)
    0x00000154   0x00000000   Code   RO         3529    .ARM.Collect$$libinit$$00000030  c_w.l(libinit2.o)
    0x00000154   0x00000004   Code   RO         3530    .ARM.Collect$$libinit$$00000031  c_w.l(libinit2.o)
    0x00000158   0x00000000   Code   RO         3531    .ARM.Collect$$libinit$$00000032  c_w.l(libinit2.o)
    0x00000158   0x00000002   Code   RO         3532    .ARM.Collect$$libinit$$00000033  c_w.l(libinit2.o)
    0x0000015a   0x00000002   Code   RO         3735    .ARM.Collect$$libshutdown$$00000000  c_w.l(libshutdown.o)
    0x0000015c   0x00000006   Code   RO         3640    .ARM.Collect$$libshutdown$$00000001  c_w.l(libshutdown2.o)
    0x00000162   0x00000000   Code   RO         3641    .ARM.Collect$$libshutdown$$00000002  c_w.l(libshutdown2.o)
    0x00000162   0x00000000   Code   RO         3643    .ARM.Collect$$libshutdown$$00000004  c_w.l(libshutdown2.o)
    0x00000162   0x00000000   Code   RO         3646    .ARM.Collect$$libshutdown$$00000007  c_w.l(libshutdown2.o)
    0x00000162   0x00000000   Code   RO         3649    .ARM.Collect$$libshutdown$$0000000A  c_w.l(libshutdown2.o)
    0x00000162   0x00000000   Code   RO         3651    .ARM.Collect$$libshutdown$$0000000C  c_w.l(libshutdown2.o)
    0x00000162   0x00000000   Code   RO         3654    .ARM.Collect$$libshutdown$$0000000F  c_w.l(libshutdown2.o)
    0x00000162   0x00000002   Code   RO         3655    .ARM.Collect$$libshutdown$$00000010  c_w.l(libshutdown2.o)
    0x00000164   0x00000000   Code   RO         3400    .ARM.Collect$$rtentry$$00000000  c_w.l(__rtentry.o)
    0x00000164   0x00000000   Code   RO         3567    .ARM.Collect$$rtentry$$00000002  c_w.l(__rtentry2.o)
    0x00000164   0x00000006   Code   RO         3579    .ARM.Collect$$rtentry$$00000004  c_w.l(__rtentry4.o)
    0x0000016a   0x00000000   Code   RO         3569    .ARM.Collect$$rtentry$$00000009  c_w.l(__rtentry2.o)
    0x0000016a   0x00000004   Code   RO         3570    .ARM.Collect$$rtentry$$0000000A  c_w.l(__rtentry2.o)
    0x0000016e   0x00000008   Code   RO         3571    .ARM.Collect$$rtentry$$0000000B  c_w.l(__rtentry2.o)
    0x00000176   0x00000008   Code   RO         3573    .ARM.Collect$$rtentry$$0000000D  c_w.l(__rtentry2.o)
    0x0000017e   0x00000002   Code   RO         3401    .ARM.Collect$$rtexit$$00000000  c_w.l(rtexit.o)
    0x00000180   0x00000000   Code   RO         3582    .ARM.Collect$$rtexit$$00000002  c_w.l(rtexit2.o)
    0x00000180   0x00000004   Code   RO         3583    .ARM.Collect$$rtexit$$00000003  c_w.l(rtexit2.o)
    0x00000184   0x00000006   Code   RO         3584    .ARM.Collect$$rtexit$$00000004  c_w.l(rtexit2.o)
    0x0000018a   0x00000002   PAD
    0x0000018c   0x0000001c   Code   RO         1806    .emb_text           rtx_conf_cm.o
    0x000001a8   0x00000130   Code   RO         3174    .emb_text           RTX_CM3.lib(hal_cm3.o)
    0x000002d8   0x00000000   Code   RO         3705    .emb_text           c_w.l(maybetermalloc1.o)
    0x000002d8   0x0000000e   Code   RO          798    .text               rxf_behaviorpkg.o
    0x000002e6   0x00000006   Code   RO          861    .text               wst_err.o
    0x000002ec   0x00000008   Code   RO         3210    .text               c_w.l(libspace.o)
    0x000002f4   0x00000006   Code   RO         3265    .text               c_w.l(heapauxi.o)
    0x000002fa   0x00000002   Code   RO         3749    .text               c_w.l(use_no_semi.o)
    0x000002fc   0x00000004   Code   RO         1963    .ARM.__at_0x02FC    startup_lpc17xx.o
    0x00000300   0x0000015c   Code   RO            1    .text               defaultpkg.o
    0x0000045c   0x0000028c   Code   RO          216    .text               display.o
    0x000006e8   0x00000268   Code   RO          276    .text               joystick.o
    0x00000950   0x00000422   Code   RO          369    .text               led.o
    0x00000d72   0x00000002   PAD
    0x00000d74   0x00000314   Code   RO          400    .text               ledbar.o
    0x00001088   0x00000048   Code   RO          470    .text               mainmcb1700.o
    0x000010d0   0x000002c0   Code   RO          542    .text               runningindicatorled.o
    0x00001390   0x00000318   Code   RO          565    .text               testbuilder.o
    0x000016a8   0x000000f0   Code   RO          636    .text               uartcontroller.o
    0x00001798   0x0000006a   Code   RO          687    .text               wstmonitor_sendtypes.o
    0x00001802   0x0000001a   Code   RO          873    .text               wst_evt.o
    0x0000181c   0x000005b0   Code   RO          885    .text               wst_fsm.o
    0x00001dcc   0x00000350   Code   RO          992    .text               wst_mem.o
    0x0000211c   0x00000134   Code   RO         1020    .text               wst_msq.o
    0x00002250   0x000000a4   Code   RO         1080    .text               wst_mtx.o
    0x000022f4   0x0000001c   Code   RO         1230    .text               wst_rxf.o
    0x00002310   0x000002fc   Code   RO         1242    .text               wst_tmm.o
    0x0000260c   0x000000dc   Code   RO         1331    .text               wst_tmr.o
    0x000026e8   0x00000268   Code   RO         1398    .text               wst_tsk.o
    0x00002950   0x00000080   Code   RO         1558    .text               wstmonitorio_keil_cortexm3_itm.o
    0x000029d0   0x00000038   Code   RO         1580    .text               wstrtos.o
    0x00002a08   0x00000d2c   Code   RO         1747    .text               glcd_mcb1700.o
    0x00003734   0x000000a8   Code   RO         1807    .text               rtx_conf_cm.o
    0x000037dc   0x00000ef0   Code   RO         1837    .text               ssp_lpc17xx.o
    0x000046cc   0x000004e0   Code   RO         1888    .text               gpdma_lpc17xx.o
    0x00004bac   0x000000cc   Code   RO         1915    .text               gpio_lpc17xx.o
    0x00004c78   0x0000013c   Code   RO         1939    .text               pin_lpc17xx.o
    0x00004db4   0x00000040   Code   RO         1964    .text               startup_lpc17xx.o
    0x00004df4   0x000002f0   Code   RO         1973    .text               system_lpc17xx.o
    0x000050e4   0x000000ee   Code   RO         3213    .text               c_w.l(lludivv7m.o)
    0x000051d2   0x00000002   PAD
    0x000051d4   0x00000028   Code   RO         3219    .text               c_w.l(noretval__2sprintf.o)
    0x000051fc   0x00000068   Code   RO         3221    .text               c_w.l(__printf.o)
    0x00005264   0x00000052   Code   RO         3223    .text               c_w.l(_printf_str.o)
    0x000052b6   0x00000012   Code   RO         3247    .text               c_w.l(exit.o)
    0x000052c8   0x0000002e   Code   RO         3252    .text               c_w.l(aeabi_atexit.o)
    0x000052f6   0x0000008a   Code   RO         3257    .text               c_w.l(rt_memcpy_v6.o)
    0x00005380   0x00000064   Code   RO         3259    .text               c_w.l(rt_memcpy_w.o)
    0x000053e4   0x0000004e   Code   RO         3261    .text               c_w.l(rt_memclr_w.o)
    0x00005432   0x00000002   PAD
    0x00005434   0x00000080   Code   RO         3263    .text               c_w.l(strcmpv7m.o)
    0x000054b4   0x00000024   Code   RO         3272    .text               c_w.l(init_aeabi.o)
    0x000054d8   0x00000022   Code   RO         3397    .text               cpprt_w.l(aeabi_vec_dtor_noexceptions.o)
    0x000054fa   0x0000000a   Code   RO         3414    .text               c_w.l(rt_ddtor_pointer_addr_twolibspace.o)
    0x00005504   0x0000009e   Code   RO         3424    .text               c_w.l(h1_alloc_mt.o)
    0x000055a2   0x00000076   Code   RO         3426    .text               c_w.l(h1_free_mt.o)
    0x00005618   0x00000030   Code   RO         3478    .text               c_w.l(_printf_char_common.o)
    0x00005648   0x0000000a   Code   RO         3480    .text               c_w.l(_sputc.o)
    0x00005652   0x0000002c   Code   RO         3482    .text               c_w.l(_printf_char.o)
    0x0000567e   0x00000042   Code   RO         3485    .text               c_w.l(cxa_finalize.o)
    0x000056c0   0x0000000a   Code   RO         3595    .text               c_w.l(rt_heap_descriptor_twolibspace.o)
    0x000056ca   0x0000000a   Code   RO         3609    .text               c_w.l(rt_new_handler_addr_twolibspace.o)
    0x000056d4   0x00000004   Code   RO         3611    .text               c_w.l(hguard.o)
    0x000056d8   0x0000008a   Code   RO         3613    .text               c_w.l(init_alloc.o)
    0x00005762   0x00000012   Code   RO         3619    .text               c_w.l(h1_init_mt.o)
    0x00005774   0x00000004   Code   RO         3659    .text               cpprt_w.l(arm_newhandler_noexceptions.o)
    0x00005778   0x0000001a   Code   RO         3679    .text               cpprt_w.l(arm_exceptions_terminate.o)
    0x00005792   0x00000002   PAD
    0x00005794   0x00000050   Code   RO         3682    .text               cpprt_w.l(arm_exceptions_globs.o)
    0x000057e4   0x0000000c   Code   RO         3692    .text               c_w.l(sys_exit.o)
    0x000057f0   0x0000004a   Code   RO         3694    .text               c_w.l(sys_stackheap_outer.o)
    0x0000583a   0x0000000a   Code   RO         3701    .text               c_w.l(rt_eh_globals_addr_twolibspace.o)
    0x00005844   0x0000003e   Code   RO         3709    .text               c_w.l(h1_extend_mt.o)
    0x00005882   0x00000016   Code   RO         3711    .text               c_w.l(abort.o)
    0x00005898   0x0000000e   Code   RO         3717    .text               c_w.l(defsig_rtmem_outer.o)
    0x000058a6   0x0000003c   Code   RO         3739    .text               cpprt_w.l(arm_exceptions_mem.o)
    0x000058e2   0x00000000   Code   RO         3751    .text               c_w.l(indicate_semi.o)
    0x000058e2   0x0000000a   Code   RO         3758    .text               c_w.l(defsig_exit.o)
    0x000058ec   0x0000000e   Code   RO         3760    .text               c_w.l(defsig_abrt_outer.o)
    0x000058fa   0x00000002   PAD
    0x000058fc   0x00000050   Code   RO         3766    .text               c_w.l(defsig_rtmem_inner.o)
    0x0000594c   0x00000032   Code   RO         3774    .text               c_w.l(defsig_general.o)
    0x0000597e   0x00000002   PAD
    0x00005980   0x00000030   Code   RO         3776    .text               c_w.l(defsig_abrt_inner.o)
    0x000059b0   0x0000000e   Code   RO         3778    .text               c_w.l(sys_wrch.o)
    0x000059be   0x00000002   PAD
    0x000059c0   0x00000648   Code   RO         1465    CODE_ANIM_RUNNING_FAST  wstmonitor.o
    0x00006008   0x00000010   Code   RO           42    CODE_RXF_RUNNING_FAST  defaultpkg.o
    0x00006018   0x00000012   Code   RO           88    CODE_RXF_RUNNING_FAST  defaultpkg.o
    0x0000602a   0x00000002   PAD
    0x0000602c   0x00000516   Code   RO         1092    CODE_RXF_RUNNING_FAST  wst_osw.o
    0x00006542   0x00000002   PAD
    0x00006544   0x000000ac   Code   RO         1581    CODE_RXF_RUNNING_FAST  wstrtos.o
    0x000065f0   0x00000024   Code   RO         1651    CODE_RXF_RUNNING_FAST  wsttarget.o
    0x00006614   0x00000004   Code   RO         3205    SVC_TABLE           RTX_CM3.lib(svc_table.o)
    0x00006618   0x00000016   Code   RO           57    i._ZN14evReceivedDataD0Ev  defaultpkg.o
    0x0000662e   0x00000004   Code   RO           33    i._ZN14evReceivedDataD1Ev  defaultpkg.o
    0x00006632   0x00000016   Code   RO           60    i._ZN21evNewJoystickPositionD0Ev  defaultpkg.o
    0x00006648   0x00000004   Code   RO           36    i._ZN21evNewJoystickPositionD1Ev  defaultpkg.o
    0x0000664c   0x00000016   Code   RO           51    i._ZN4evOnD0Ev      defaultpkg.o
    0x00006662   0x00000004   Code   RO           27    i._ZN4evOnD1Ev      defaultpkg.o
    0x00006666   0x00000016   Code   RO           54    i._ZN5evOffD0Ev     defaultpkg.o
    0x0000667c   0x00000004   Code   RO           30    i._ZN5evOffD1Ev     defaultpkg.o
    0x00006680   0x00000018   Code   RO         1345    i._ZN7WST_TMRC1Ev   wst_tmr.o
    0x00006698   0x00000012   Code   RO         1265    i._ZN7WST_TMRD0Ev   wst_tmm.o
    0x000066aa   0x00000008   Code   RO         1259    i._ZN7WST_TMRD1Ev   wst_tmm.o
    0x000066b2   0x00000016   Code   RO           63    i._ZN7evBlinkD0Ev   defaultpkg.o
    0x000066c8   0x00000004   Code   RO           39    i._ZN7evBlinkD1Ev   defaultpkg.o
    0x000066cc   0x00000016   Code   RO           48    i._ZN8evToggleD0Ev  defaultpkg.o
    0x000066e2   0x00000004   Code   RO           24    i._ZN8evToggleD1Ev  defaultpkg.o
    0x000066e6   0x00000008   Code   RO         3279    i._ZdlPv            cpprt_w.l(delete.o)
    0x000066ee   0x00000008   Code   RO         3275    i._Znaj             cpprt_w.l(array_new.o)
    0x000066f6   0x00000002   PAD
    0x000066f8   0x00000028   Code   RO         3533    i._Znwj             cpprt_w.l(new.o)
    0x00006720   0x00000024   Code   RO         3394    i.__aeabi_vec_ctor_nocookie_nodtor  cpprt_w.l(aeabi_vec_ctor_nocookie_nodtor.o)
    0x00006744   0x00000010   Code   RO         3282    i.__cxa_guard_acquire  cpprt_w.l(cxa_guard_acquire.o)
    0x00006754   0x00000046   Code   RO         3073    i._init_box         RTX_CM3.lib(rt_membox.o)
    0x0000679a   0x00000002   PAD
    0x0000679c   0x00000030   Code   RO         3126    i.dbg_init          RTX_CM3.lib(hal_cm.o)
    0x000067cc   0x00000020   Code   RO         3127    i.dbg_task_notify   RTX_CM3.lib(hal_cm.o)
    0x000067ec   0x00000010   Code   RO         3128    i.dbg_task_switch   RTX_CM3.lib(hal_cm.o)
    0x000067fc   0x0000002a   Code   RO         2003    i.isrMessageGet     RTX_CM3.lib(rt_cmsis.o)
    0x00006826   0x0000002c   Code   RO         2004    i.isrMessagePut     RTX_CM3.lib(rt_cmsis.o)
    0x00006852   0x00000002   PAD
    0x00006854   0x00000056   Code   RO         2949    i.isr_mbx_receive   RTX_CM3.lib(rt_mailbox.o)
    0x000068aa   0x0000000e   Code   RO         2950    i.isr_mbx_send      RTX_CM3.lib(rt_mailbox.o)
    0x000068b8   0x00000018   Code   RO         2007    i.osDelay           RTX_CM3.lib(rt_cmsis.o)
    0x000068d0   0x00000024   Code   RO         2008    i.osKernelInitialize  RTX_CM3.lib(rt_cmsis.o)
    0x000068f4   0x00000024   Code   RO         2009    i.osKernelRunning   RTX_CM3.lib(rt_cmsis.o)
    0x00006918   0x0000006c   Code   RO         2010    i.osKernelStart     RTX_CM3.lib(rt_cmsis.o)
    0x00006984   0x0000002c   Code   RO         2018    i.osMessageCreate   RTX_CM3.lib(rt_cmsis.o)
    0x000069b0   0x00000018   Code   RO         2019    i.osMessageGet      RTX_CM3.lib(rt_cmsis.o)
    0x000069c8   0x00000018   Code   RO         2020    i.osMessagePut      RTX_CM3.lib(rt_cmsis.o)
    0x000069e0   0x0000002c   Code   RO         2021    i.osMutexCreate     RTX_CM3.lib(rt_cmsis.o)
    0x00006a0c   0x00000018   Code   RO         2022    i.osMutexDelete     RTX_CM3.lib(rt_cmsis.o)
    0x00006a24   0x00000018   Code   RO         2023    i.osMutexRelease    RTX_CM3.lib(rt_cmsis.o)
    0x00006a3c   0x00000018   Code   RO         2024    i.osMutexWait       RTX_CM3.lib(rt_cmsis.o)
    0x00006a54   0x0000002c   Code   RO         2036    i.osThreadCreate    RTX_CM3.lib(rt_cmsis.o)
    0x00006a80   0x00000018   Code   RO         2037    i.osThreadExit      RTX_CM3.lib(rt_cmsis.o)
    0x00006a98   0x00000018   Code   RO         2038    i.osThreadGetId     RTX_CM3.lib(rt_cmsis.o)
    0x00006ab0   0x00000018   Code   RO         2041    i.osThreadTerminate  RTX_CM3.lib(rt_cmsis.o)
    0x00006ac8   0x0000000c   Code   RO         2043    i.osTimerCall       RTX_CM3.lib(rt_cmsis.o)
    0x00006ad4   0x0000002c   Code   RO         2044    i.osTimerCreate     RTX_CM3.lib(rt_cmsis.o)
    0x00006b00   0x00000018   Code   RO         2046    i.osTimerStart      RTX_CM3.lib(rt_cmsis.o)
    0x00006b18   0x0000002c   Code   RO         2048    i.osTimerThread     RTX_CM3.lib(rt_cmsis.o)
    0x00006b44   0x00000028   Code   RO         2741    i.os_tick_init      RTX_CM3.lib(rt_system.o)
    0x00006b6c   0x00000002   Code   RO         2742    i.os_tick_irqack    RTX_CM3.lib(rt_system.o)
    0x00006b6e   0x0000001a   Code   RO         3074    i.rt_alloc_box      RTX_CM3.lib(rt_membox.o)
    0x00006b88   0x0000003e   Code   RO         3102    i.rt_alloc_mem      RTX_CM3.lib(rt_memory.o)
    0x00006bc6   0x00000002   PAD
    0x00006bc8   0x00000038   Code   RO         2622    i.rt_block          RTX_CM3.lib(rt_task.o)
    0x00006c00   0x00000070   Code   RO         2873    i.rt_dec_dly        RTX_CM3.lib(rt_list.o)
    0x00006c70   0x00000044   Code   RO         2623    i.rt_dispatch       RTX_CM3.lib(rt_task.o)
    0x00006cb4   0x00000006   Code   RO         3039    i.rt_dly_wait       RTX_CM3.lib(rt_time.o)
    0x00006cba   0x00000002   PAD
    0x00006cbc   0x00000050   Code   RO         2834    i.rt_evt_psh        RTX_CM3.lib(rt_event.o)
    0x00006d0c   0x0000002c   Code   RO         3075    i.rt_free_box       RTX_CM3.lib(rt_membox.o)
    0x00006d38   0x00000028   Code   RO         3103    i.rt_free_mem       RTX_CM3.lib(rt_memory.o)
    0x00006d60   0x00000028   Code   RO         2874    i.rt_get_first      RTX_CM3.lib(rt_list.o)
    0x00006d88   0x00000008   Code   RO         2053    i.rt_id2obj         RTX_CM3.lib(rt_cmsis.o)
    0x00006d90   0x00000048   Code   RO         2624    i.rt_init_context   RTX_CM3.lib(rt_task.o)
    0x00006dd8   0x0000001a   Code   RO         3104    i.rt_init_mem       RTX_CM3.lib(rt_memory.o)
    0x00006df2   0x00000002   PAD
    0x00006df4   0x00000080   Code   RO         3129    i.rt_init_stack     RTX_CM3.lib(hal_cm.o)
    0x00006e74   0x00000008   Code   RO         2951    i.rt_mbx_check      RTX_CM3.lib(rt_mailbox.o)
    0x00006e7c   0x0000001a   Code   RO         2952    i.rt_mbx_init       RTX_CM3.lib(rt_mailbox.o)
    0x00006e96   0x00000002   PAD
    0x00006e98   0x000000f0   Code   RO         2953    i.rt_mbx_psh        RTX_CM3.lib(rt_mailbox.o)
    0x00006f88   0x00000098   Code   RO         2954    i.rt_mbx_send       RTX_CM3.lib(rt_mailbox.o)
    0x00007020   0x000000b4   Code   RO         2955    i.rt_mbx_wait       RTX_CM3.lib(rt_mailbox.o)
    0x000070d4   0x00000044   Code   RO         2054    i.rt_ms2tick        RTX_CM3.lib(rt_cmsis.o)
    0x00007118   0x000000b0   Code   RO         2706    i.rt_mut_delete     RTX_CM3.lib(rt_mutex.o)
    0x000071c8   0x00000010   Code   RO         2707    i.rt_mut_init       RTX_CM3.lib(rt_mutex.o)
    0x000071d8   0x000000d8   Code   RO         2708    i.rt_mut_release    RTX_CM3.lib(rt_mutex.o)
    0x000072b0   0x00000078   Code   RO         2709    i.rt_mut_wait       RTX_CM3.lib(rt_mutex.o)
    0x00007328   0x0000007c   Code   RO         2745    i.rt_pop_req        RTX_CM3.lib(rt_system.o)
    0x000073a4   0x00000020   Code   RO         2746    i.rt_psh_req        RTX_CM3.lib(rt_system.o)
    0x000073c4   0x0000005c   Code   RO         2876    i.rt_psq_enq        RTX_CM3.lib(rt_list.o)
    0x00007420   0x00000048   Code   RO         2877    i.rt_put_dly        RTX_CM3.lib(rt_list.o)
    0x00007468   0x00000036   Code   RO         2878    i.rt_put_prio       RTX_CM3.lib(rt_list.o)
    0x0000749e   0x00000002   PAD
    0x000074a0   0x00000014   Code   RO         2879    i.rt_put_rdy_first  RTX_CM3.lib(rt_list.o)
    0x000074b4   0x00000034   Code   RO         2880    i.rt_resort_prio    RTX_CM3.lib(rt_list.o)
    0x000074e8   0x00000006   Code   RO         3130    i.rt_ret_val        RTX_CM3.lib(hal_cm.o)
    0x000074ee   0x00000008   Code   RO         3131    i.rt_ret_val2       RTX_CM3.lib(hal_cm.o)
    0x000074f6   0x00000028   Code   RO         2881    i.rt_rmv_dly        RTX_CM3.lib(rt_list.o)
    0x0000751e   0x00000002   PAD
    0x00007520   0x00000030   Code   RO         2882    i.rt_rmv_list       RTX_CM3.lib(rt_list.o)
    0x00007550   0x00000034   Code   RO         3000    i.rt_sem_psh        RTX_CM3.lib(rt_semaphore.o)
    0x00007584   0x00000024   Code   RO         2748    i.rt_stk_check      RTX_CM3.lib(rt_system.o)
    0x000075a8   0x00000028   Code   RO         2625    i.rt_switch_req     RTX_CM3.lib(rt_task.o)
    0x000075d0   0x000000cc   Code   RO         2626    i.rt_sys_init       RTX_CM3.lib(rt_task.o)
    0x0000769c   0x00000078   Code   RO         2627    i.rt_sys_start      RTX_CM3.lib(rt_task.o)
    0x00007714   0x00000040   Code   RO         2750    i.rt_systick        RTX_CM3.lib(rt_system.o)
    0x00007754   0x00000012   Code   RO         2055    i.rt_tid2ptcb       RTX_CM3.lib(rt_cmsis.o)
    0x00007766   0x00000002   PAD
    0x00007768   0x00000034   Code   RO         2056    i.rt_timer_insert   RTX_CM3.lib(rt_cmsis.o)
    0x0000779c   0x0000003c   Code   RO         2057    i.rt_timer_remove   RTX_CM3.lib(rt_cmsis.o)
    0x000077d8   0x00000088   Code   RO         2628    i.rt_tsk_create     RTX_CM3.lib(rt_task.o)
    0x00007860   0x0000017c   Code   RO         2629    i.rt_tsk_delete     RTX_CM3.lib(rt_task.o)
    0x000079dc   0x0000007c   Code   RO         2631    i.rt_tsk_prio       RTX_CM3.lib(rt_task.o)
    0x00007a58   0x00000010   Code   RO         2632    i.rt_tsk_self       RTX_CM3.lib(rt_task.o)
    0x00007a68   0x00000012   Code   RO         2058    i.svcDelay          RTX_CM3.lib(rt_cmsis.o)
    0x00007a7a   0x00000002   PAD
    0x00007a7c   0x00000070   Code   RO         2059    i.svcKernelInitialize  RTX_CM3.lib(rt_cmsis.o)
    0x00007aec   0x0000000c   Code   RO         2060    i.svcKernelRunning  RTX_CM3.lib(rt_cmsis.o)
    0x00007af8   0x00000048   Code   RO         2061    i.svcKernelStart    RTX_CM3.lib(rt_cmsis.o)
    0x00007b40   0x00000024   Code   RO         2064    i.svcMessageCreate  RTX_CM3.lib(rt_cmsis.o)
    0x00007b64   0x0000003a   Code   RO         2065    i.svcMessageGet     RTX_CM3.lib(rt_cmsis.o)
    0x00007b9e   0x00000036   Code   RO         2066    i.svcMessagePut     RTX_CM3.lib(rt_cmsis.o)
    0x00007bd4   0x0000001c   Code   RO         2067    i.svcMutexCreate    RTX_CM3.lib(rt_cmsis.o)
    0x00007bf0   0x0000001a   Code   RO         2068    i.svcMutexDelete    RTX_CM3.lib(rt_cmsis.o)
    0x00007c0a   0x00000022   Code   RO         2069    i.svcMutexRelease   RTX_CM3.lib(rt_cmsis.o)
    0x00007c2c   0x0000003a   Code   RO         2070    i.svcMutexWait      RTX_CM3.lib(rt_cmsis.o)
    0x00007c66   0x00000002   PAD
    0x00007c68   0x0000006c   Code   RO         2079    i.svcThreadCreate   RTX_CM3.lib(rt_cmsis.o)
    0x00007cd4   0x0000001c   Code   RO         2080    i.svcThreadGetId    RTX_CM3.lib(rt_cmsis.o)
    0x00007cf0   0x00000038   Code   RO         2083    i.svcThreadTerminate  RTX_CM3.lib(rt_cmsis.o)
    0x00007d28   0x00000018   Code   RO         2085    i.svcTimerCall      RTX_CM3.lib(rt_cmsis.o)
    0x00007d40   0x00000038   Code   RO         2086    i.svcTimerCreate    RTX_CM3.lib(rt_cmsis.o)
    0x00007d78   0x00000064   Code   RO         2088    i.svcTimerStart     RTX_CM3.lib(rt_cmsis.o)
    0x00007ddc   0x0000005c   Code   RO         2094    i.sysTimerTick      RTX_CM3.lib(rt_cmsis.o)
    0x00007e38   0x000018a0   Data   RO         1725    .constdata          glcd_fonts.o
    0x000096d8   0x00000068   Data   RO         1809    .constdata          rtx_conf_cm.o
    0x00009740   0x0000007c   Data   RO         1839    .constdata          ssp_lpc17xx.o
    0x000097bc   0x0000002c   Data   RO          576    .constdata__ZTV11TestBuilder  testbuilder.o
    0x000097e8   0x00000010   Data   RO          655    .constdata__ZTV14UartController  uartcontroller.o
    0x000097f8   0x00000014   Data   RO           19    .constdata__ZTV14evReceivedData  defaultpkg.o
    0x0000980c   0x00000044   Data   RO          553    .constdata__ZTV19RunningIndicatorLed  runningindicatorled.o
    0x00009850   0x00000014   Data   RO           21    .constdata__ZTV21evNewJoystickPosition  defaultpkg.o
    0x00009864   0x00000028   Data   RO          388    .constdata__ZTV3Led  led.o
    0x0000988c   0x00000014   Data   RO           15    .constdata__ZTV4evOn  defaultpkg.o
    0x000098a0   0x00000014   Data   RO           17    .constdata__ZTV5evOff  defaultpkg.o
    0x000098b4   0x0000002c   Data   RO          410    .constdata__ZTV6LedBar  ledbar.o
    0x000098e0   0x00000028   Data   RO          226    .constdata__ZTV7Display  display.o
    0x00009908   0x00000010   Data   RO           67    .constdata__ZTV7WST_EVT  defaultpkg.o
    0x00009918   0x00000024   Data   RO          896    .constdata__ZTV7WST_FSM  wst_fsm.o
    0x0000993c   0x00000010   Data   RO         1256    .constdata__ZTV7WST_TMR  wst_tmm.o
    0x0000994c   0x00000010   Data   RO         1411    .constdata__ZTV7WST_TSK  wst_tsk.o
    0x0000995c   0x00000014   Data   RO           23    .constdata__ZTV7evBlink  defaultpkg.o
    0x00009970   0x00000044   Data   RO          295    .constdata__ZTV8Joystick  joystick.o
    0x000099b4   0x00000014   Data   RO           13    .constdata__ZTV8evToggle  defaultpkg.o
    0x000099c8   0x00000030   Data   RO         3794    Region$$Table       anon$$obj.o
    0x000099f8   0x00000004   Data   RO         1246    .init_array         wst_tmm.o
    0x000099fc   0x00000004   Data   RO         1335    .init_array         wst_tmr.o
    0x00009a00   0x00000004   Data   RO         1585    .init_array         wstrtos.o
    0x00009a04   0x00000000   Data   RO         3270    .init_array         c_w.l(init_aeabi.o)


    Execution Region RW_IRAM1 (Base: 0x10000000, Size: 0x00002564, Max: 0x00008000, ABSOLUTE)

    Base Addr    Size         Type   Attr      Idx    E Section Name        Object

    0x10000000   0x00002564   Zero   RW         1808    .bss                rtx_conf_cm.o


    Execution Region RW_IRAM2 (Base: 0x2007c000, Size: 0x000020f0, Max: 0x00008000, ABSOLUTE)

    Base Addr    Size         Type   Attr      Idx    E Section Name        Object

    0x2007c000   0x0000000a   Data   RW          849    .data               wst_cfg_highwater.o
    0x2007c00a   0x00000002   PAD
    0x2007c00c   0x00000015   Data   RW          995    .data               wst_mem.o
    0x2007c021   0x00000003   PAD
    0x2007c024   0x00000005   Data   RW         1096    .data               wst_osw.o
    0x2007c029   0x00000003   PAD
    0x2007c02c   0x00000004   Data   RW         1334    .data               wst_tmr.o
    0x2007c030   0x00000005   Data   RW         1401    .data               wst_tsk.o
    0x2007c035   0x00000003   PAD
    0x2007c038   0x00000026   Data   RW         1468    .data               wstmonitor.o
    0x2007c05e   0x00000002   PAD
    0x2007c060   0x00000004   Data   RW         1560    .data               wstmonitorio_keil_cortexm3_itm.o
    0x2007c064   0x00000011   Data   RW         1748    .data               glcd_mcb1700.o
    0x2007c075   0x00000003   PAD
    0x2007c078   0x00000014   Data   RW         1810    .data               rtx_conf_cm.o
    0x2007c08c   0x00000010   Data   RW         1840    .data               ssp_lpc17xx.o
    0x2007c09c   0x00000008   Data   RW         1890    .data               gpdma_lpc17xx.o
    0x2007c0a4   0x00000004   Data   RW         1974    .data               system_lpc17xx.o
    0x2007c0a8   0x00000008   Data   RW         2097    .data               RTX_CM3.lib(rt_cmsis.o)
    0x2007c0b0   0x00000008   Data   RW         2634    .data               RTX_CM3.lib(rt_task.o)
    0x2007c0b8   0x00000008   Data   RW         2753    .data               RTX_CM3.lib(rt_system.o)
    0x2007c0c0   0x00000004   Data   RW         3043    .data               RTX_CM3.lib(rt_time.o)
    0x2007c0c4   0x00000001   Data   RW         3132    .data               RTX_CM3.lib(hal_cm.o)
    0x2007c0c5   0x00000003   PAD
    0x2007c0c8   0x00000024   Data   RW         1469    DATA_ANIM_RUNNING_UNSPECIFIED_NOINIT_FAST  wstmonitor.o
    0x2007c0ec   0x00000004   Data   RW         1586    DATA_RXF_RUNNING_32_INIT_FAST  wstrtos.o
    0x2007c0f0   0x00000005   Data   RW         1097    DATA_RXF_RUNNING_UNSPECIFIED_NOINIT_FAST  wst_osw.o
    0x2007c0f5   0x00000003   PAD
    0x2007c0f8   0x00000290   Zero   RW          994    .bss                wst_mem.o
    0x2007c388   0x0000004c   Zero   RW         1095    .bss                wst_osw.o
    0x2007c3d4   0x00000010   Zero   RW         1245    .bss                wst_tmm.o
    0x2007c3e4   0x00000500   Zero   RW         1333    .bss                wst_tmr.o
    0x2007c8e4   0x00000240   Zero   RW         1467    .bss                wstmonitor.o
    0x2007cb24   0x00000040   Zero   RW         1584    .bss                wstrtos.o
    0x2007cb64   0x00000028   Zero   RW         1838    .bss                ssp_lpc17xx.o
    0x2007cb8c   0x000000a0   Zero   RW         1889    .bss                gpdma_lpc17xx.o
    0x2007cc2c   0x00000034   Zero   RW         2633    .bss                RTX_CM3.lib(rt_task.o)
    0x2007cc60   0x00000030   Zero   RW         2883    .bss                RTX_CM3.lib(rt_list.o)
    0x2007cc90   0x00000060   Zero   RW         3211    .bss                c_w.l(libspace.o)
    0x2007ccf0   0x00001000   Zero   RW         1961    HEAP                startup_lpc17xx.o
    0x2007dcf0   0x00000400   Zero   RW         1960    STACK               startup_lpc17xx.o


==============================================================================

Image component sizes


      Code (inc. data)   RO Data    RW Data    ZI Data      Debug   Object Name

       538         30        136          0          0      31295   defaultpkg.o
       652        220         40          0          0      18883   display.o
         0          0       6304          0          0       5724   glcd_fonts.o
      3372         54          0         17          0      32318   glcd_mcb1700.o
      1248         50          0          8        160       5393   gpdma_lpc17xx.o
       204         10          0          0          0       1681   gpio_lpc17xx.o
       616         10         68          0          0      25589   joystick.o
      1058         32         40          0          0       7568   led.o
       788         22         44          0          0      28221   ledbar.o
        72          0          0          0          0      23674   mainmcb1700.o
       316          6          0          0          0       1348   pin_lpc17xx.o
       196         34        104         20       9572       8964   rtx_conf_cm.o
       704          6         68          0          0       6378   runningindicatorled.o
        14          0          0          0          0      13802   rxf_behaviorpkg.o
      3824         34        124         16         40      43943   ssp_lpc17xx.o
        68         30        204          0       5120        992   startup_lpc17xx.o
       752         30          0          4          0       1073   system_lpc17xx.o
       792          6         44          0          0      25965   testbuilder.o
       240         22         16          0          0       1216   uartcontroller.o
         0          0          0         10          0        220   wst_cfg_highwater.o
         6          0          0          0          0        560   wst_err.o
        26          0          0          0          0       1548   wst_evt.o
      1456         38         36          0          0      29995   wst_fsm.o
       848         66          0         21        656       3747   wst_mem.o
       308         10          0          0          0      18263   wst_msq.o
       164          0          0          0          0       1724   wst_mtx.o
      1302         44          0         10         76      27175   wst_osw.o
        28          4          0          0          0        776   wst_rxf.o
       790         20         20          0         16      21895   wst_tmm.o
       244         36          4          4       1280      18675   wst_tmr.o
       616         34         16          5          0      19823   wst_tsk.o
      1608        122          0         74        576      26583   wstmonitor.o
       106          0          0          0          0      18481   wstmonitor_sendtypes.o
       128         24          0          4          0       2193   wstmonitorio_keil_cortexm3_itm.o
       228         44          4          4         64      19983   wstrtos.o
        36          0          0          0          0       4317   wsttarget.o

    ----------------------------------------------------------------------
     23354       1038       7320        216      17560     499985   Object Totals
         0          0         48          0          0          0   (incl. Generated)
         6          0          0         19          0          0   (incl. Padding)

    ----------------------------------------------------------------------

      Code (inc. data)   RO Data    RW Data    ZI Data      Debug   Library Member Name

       238         24          0          1          0       3312   hal_cm.o
       304         36          0          0          0        768   hal_cm3.o
      1916        236          0          8          0      45802   rt_cmsis.o
        80          4          0          0          0        661   rt_event.o
       530         34          0          0         48       8253   rt_list.o
       706         14          0          0          0       4787   rt_mailbox.o
       140          0          0          0          0       1925   rt_membox.o
       128          0          0          0          0       2307   rt_memory.o
       528         22          0          0          0       2861   rt_mutex.o
        52          4          0          0          0        573   rt_semaphore.o
       298         52          0          8          0       6223   rt_system.o
      1216        174          0          8         52       9649   rt_task.o
         6          0          0          4          0        652   rt_time.o
         4          4          0          0          0        208   svc_table.o
         8          0          0          0          0         68   __main.o
       104          0          0          0          0         84   __printf.o
         0          0          0          0          0          0   __rtentry.o
        20          0          0          0          0          0   __rtentry2.o
         6          0          0          0          0          0   __rtentry4.o
        52          8          0          0          0          0   __scatter.o
        26          0          0          0          0          0   __scatter_copy.o
        28          0          0          0          0          0   __scatter_zi.o
        44          0          0          0          0        108   _printf_char.o
        48          6          0          0          0         96   _printf_char_common.o
         0          0          0          0          0          0   _printf_percent.o
         4          0          0          0          0          0   _printf_percent_end.o
         6          0          0          0          0          0   _printf_s.o
        82          0          0          0          0         80   _printf_str.o
        10          0          0          0          0         68   _sputc.o
        22          0          0          0          0         80   abort.o
        46          0          0          0          0         84   aeabi_atexit.o
        66          0          0          0          0         84   cxa_finalize.o
        48         34          0          0          0         76   defsig_abrt_inner.o
        14          0          0          0          0         80   defsig_abrt_outer.o
        10          0          0          0          0         68   defsig_exit.o
        50          0          0          0          0         88   defsig_general.o
        80         58          0          0          0         76   defsig_rtmem_inner.o
        14          0          0          0          0         80   defsig_rtmem_outer.o
        18          0          0          0          0         80   exit.o
       158          0          0          0          0        128   h1_alloc_mt.o
        62          0          0          0          0         80   h1_extend_mt.o
       118          0          0          0          0        108   h1_free_mt.o
        18          0          0          0          0         84   h1_init_mt.o
         6          0          0          0          0        152   heapauxi.o
         4          0          0          0          0        136   hguard.o
         0          0          0          0          0          0   indicate_semi.o
        36         10          0          0          0         80   init_aeabi.o
       138          0          0          0          0        168   init_alloc.o
         2          0          0          0          0          0   libinit.o
        14          0          0          0          0          0   libinit2.o
         2          0          0          0          0          0   libshutdown.o
         8          0          0          0          0          0   libshutdown2.o
         8          4          0          0         96         68   libspace.o
       238          0          0          0          0        100   lludivv7m.o
         0          0          0          0          0          0   maybetermalloc1.o
        40          6          0          0          0         84   noretval__2sprintf.o
        10          0          0          0          0         76   rt_ddtor_pointer_addr_twolibspace.o
        10          0          0          0          0         76   rt_eh_globals_addr_twolibspace.o
        10          0          0          0          0         76   rt_heap_descriptor_twolibspace.o
        78          0          0          0          0         80   rt_memclr_w.o
       138          0          0          0          0         68   rt_memcpy_v6.o
       100          0          0          0          0         80   rt_memcpy_w.o
        10          0          0          0          0         76   rt_new_handler_addr_twolibspace.o
         2          0          0          0          0          0   rtexit.o
        10          0          0          0          0          0   rtexit2.o
       128          0          0          0          0         68   strcmpv7m.o
        12          4          0          0          0         68   sys_exit.o
        74          0          0          0          0         80   sys_stackheap_outer.o
        14          0          0          0          0         76   sys_wrch.o
         2          0          0          0          0         68   use_no_semi.o
        36          0          0          0          0         84   aeabi_vec_ctor_nocookie_nodtor.o
        34          0          0          0          0         84   aeabi_vec_dtor_noexceptions.o
        80         12          0          0          0        104   arm_exceptions_globs.o
        60          0          0          0          0        108   arm_exceptions_mem.o
        26          0          0          0          0         76   arm_exceptions_terminate.o
         4          0          0          0          0         68   arm_newhandler_noexceptions.o
         8          0          0          0          0         76   array_new.o
        16          0          0          0          0         68   cxa_guard_acquire.o
         8          0          0          0          0         76   delete.o
        40          6          0          0          0         76   new.o

    ----------------------------------------------------------------------
      8754        752          0         32        196      92181   Library Totals
        40          0          0          3          0          0   (incl. Padding)

    ----------------------------------------------------------------------

      Code (inc. data)   RO Data    RW Data    ZI Data      Debug   Library Name

      6146        604          0         29        100      87981   RTX_CM3.lib
      2256        130          0          0         96       3380   c_w.l
       312         18          0          0          0        820   cpprt_w.l

    ----------------------------------------------------------------------
      8754        752          0         32        196      92181   Library Totals

    ----------------------------------------------------------------------

==============================================================================


      Code (inc. data)   RO Data    RW Data    ZI Data      Debug   

     32108       1790       7320        248      17756     580618   Grand Totals
     32108       1790       7320        248      17756     580618   ELF Image Totals
     32108       1790       7320        248          0          0   ROM Totals

==============================================================================

    Total RO  Size (Code + RO Data)                39428 (  38.50kB)
    Total RW  Size (RW Data + ZI Data)             18004 (  17.58kB)
    Total ROM Size (Code + RO Data + RW Data)      39676 (  38.75kB)

==============================================================================

